

Microchip MPLAB XC8 Assembler V2.10 build 88905656 
                                                                                               Thu Feb 27 00:23:50 2020

Microchip MPLAB XC8 C Compiler v2.10 (Free license) build 20190730164152 Og1 
     1                           	processor	16F1827
     2                           	opt	pw 120
     3                           	opt	flic
     4                           	psect	nvBANK0,global,class=BANK0,space=1,delta=1
     5                           	psect	cinit,global,class=CODE,merge=1,delta=2
     6                           	psect	bssCOMMON,global,class=COMMON,space=1,delta=1
     7                           	psect	bssBANK0,global,class=BANK0,space=1,delta=1
     8                           	psect	clrtext,global,class=CODE,delta=2
     9                           	psect	cstackCOMMON,global,class=COMMON,space=1,delta=1
    10                           	psect	cstackBANK0,global,class=BANK0,space=1,delta=1
    11                           	psect	maintext,global,class=CODE,merge=1,split=1,delta=2
    12                           	psect	text1,local,class=CODE,merge=1,delta=2
    13                           	psect	text2,local,class=CODE,merge=1,delta=2
    14                           	psect	text3,local,class=CODE,merge=1,delta=2
    15                           	psect	text4,local,class=CODE,merge=1,delta=2
    16                           	psect	text5,local,class=CODE,merge=1,delta=2
    17                           	psect	text6,local,class=CODE,merge=1,delta=2
    18                           	psect	text7,local,class=CODE,merge=1,delta=2
    19                           	psect	text8,local,class=CODE,merge=1,delta=2
    20                           	psect	text9,local,class=CODE,merge=1,delta=2
    21                           	psect	text10,local,class=CODE,merge=1,delta=2
    22                           	psect	text11,local,class=CODE,merge=1,delta=2
    23                           	psect	text12,local,class=CODE,merge=1,inline,delta=2
    24                           	psect	text13,local,class=CODE,merge=1,inline,delta=2
    25                           	psect	text14,local,class=CODE,merge=1,delta=2
    26                           	psect	text15,local,class=CODE,merge=1,delta=2
    27                           	psect	text16,local,class=CODE,merge=1,delta=2
    28                           	psect	text17,local,class=CODE,merge=1,delta=2
    29                           	psect	text18,local,class=CODE,merge=1,inline,delta=2
    30                           	psect	text19,local,class=CODE,merge=1,inline,delta=2
    31                           	psect	intentry,global,class=CODE,delta=2
    32                           	psect	text21,local,class=CODE,merge=1,delta=2
    33                           	psect	text22,local,class=CODE,merge=1,delta=2
    34                           	psect	text23,local,class=CODE,merge=1,delta=2
    35                           	psect	text24,local,class=CODE,merge=1,delta=2
    36                           	psect	text25,local,class=CODE,merge=1,delta=2
    37                           	psect	text26,local,class=CODE,merge=1,delta=2
    38                           	psect	text27,local,class=CODE,merge=1,delta=2
    39                           	psect	text28,local,class=CODE,merge=1,delta=2
    40                           	psect	text29,local,class=CODE,merge=1,delta=2
    41                           	psect	text30,local,class=CODE,merge=1,inline,delta=2
    42                           	psect	text31,local,class=CODE,merge=1,inline,delta=2
    43                           	psect	text32,local,class=CODE,merge=1,inline,delta=2
    44                           	psect	text33,local,class=CODE,merge=1,delta=2
    45                           	psect	text34,local,class=CODE,merge=1,delta=2
    46                           	psect	text35,local,class=CODE,merge=1,delta=2
    47                           	psect	text36,local,class=CODE,merge=1,inline,delta=2
    48                           	psect	text37,local,class=CODE,merge=1,inline,delta=2
    49                           	psect	text38,local,class=CODE,merge=1,inline,delta=2
    50                           	psect	text39,local,class=CODE,merge=1,inline,delta=2
    51                           	psect	text40,local,class=CODE,merge=1,inline,delta=2
    52                           	psect	text41,local,class=CODE,merge=1,delta=2
    53                           	psect	text42,local,class=CODE,merge=1,delta=2
    54                           	psect	text43,local,class=CODE,merge=1,delta=2
    55                           	psect	text44,local,class=CODE,merge=1,inline,delta=2
    56                           	dabs	1,0x7E,2
    57  0000                     
    58                           ; Version 2.10
    59                           ; Generated 31/07/2019 GMT
    60                           ; 
    61                           ; Copyright © 2019, Microchip Technology Inc. and its subsidiaries ("Microchip")
    62                           ; All rights reserved.
    63                           ; 
    64                           ; This software is developed by Microchip Technology Inc. and its subsidiaries ("Microch
      +                          ip").
    65                           ; 
    66                           ; Redistribution and use in source and binary forms, with or without modification, are
    67                           ; permitted provided that the following conditions are met:
    68                           ; 
    69                           ;     1. Redistributions of source code must retain the above copyright notice, this lis
      +                          t of
    70                           ;        conditions and the following disclaimer.
    71                           ; 
    72                           ;     2. Redistributions in binary form must reproduce the above copyright notice, this 
      +                          list
    73                           ;        of conditions and the following disclaimer in the documentation and/or other
    74                           ;        materials provided with the distribution.
    75                           ; 
    76                           ;     3. Microchip's name may not be used to endorse or promote products derived from th
      +                          is
    77                           ;        software without specific prior written permission.
    78                           ; 
    79                           ; THIS SOFTWARE IS PROVIDED BY MICROCHIP "AS IS" AND ANY EXPRESS OR IMPLIED WARRANTIES,
    80                           ; INCLUDING, BUT NOT LIMITED TO, THE IMPLIED WARRANTIES OF MERCHANTABILITY AND FITNESS F
      +                          OR
    81                           ; PURPOSE ARE DISCLAIMED.  IN NO EVENT SHALL MICROCHIP BE LIABLE FOR ANY DIRECT, INDIREC
      +                          T,
    82                           ; INCIDENTAL, SPECIAL, EXEMPLARY, OR CONSEQUENTIAL DAMAGES (INCLUDING BUT NOT LIMITED TO
    83                           ; PROCUREMENT OF SUBSTITUTE GOODS OR SERVICES; LOSS OF USE, DATA OR PROFITS; OR BUSINESS
    84                           ; INTERRUPTION) HOWSOEVER CAUSED AND ON ANY THEORY OF LIABILITY, WHETHER IN CONTRACT, ST
      +                          RICT
    85                           ; LIABILITY, OR TORT (INCLUDING NEGLIGENCE OR OTHERWISE) ARISING IN ANY WAY OUT OF THE U
      +                          SE OF
    86                           ; THIS SOFTWARE, EVEN IF ADVISED OF THE POSSIBILITY OF SUCH DAMAGE.
    87                           ; 
    88                           ; 
    89                           ; Code-generator required, PIC16F1827 Definitions
    90                           ; 
    91                           ; SFR Addresses
    92  0000                     	;# 
    93  0001                     	;# 
    94  0002                     	;# 
    95  0003                     	;# 
    96  0004                     	;# 
    97  0005                     	;# 
    98  0006                     	;# 
    99  0007                     	;# 
   100  0008                     	;# 
   101  0009                     	;# 
   102  000A                     	;# 
   103  000B                     	;# 
   104  000C                     	;# 
   105  000D                     	;# 
   106  0011                     	;# 
   107  0012                     	;# 
   108  0013                     	;# 
   109  0014                     	;# 
   110  0015                     	;# 
   111  0016                     	;# 
   112  0016                     	;# 
   113  0017                     	;# 
   114  0018                     	;# 
   115  0019                     	;# 
   116  001A                     	;# 
   117  001B                     	;# 
   118  001C                     	;# 
   119  001E                     	;# 
   120  001F                     	;# 
   121  008C                     	;# 
   122  008D                     	;# 
   123  0091                     	;# 
   124  0092                     	;# 
   125  0093                     	;# 
   126  0094                     	;# 
   127  0095                     	;# 
   128  0096                     	;# 
   129  0097                     	;# 
   130  0098                     	;# 
   131  0099                     	;# 
   132  009A                     	;# 
   133  009B                     	;# 
   134  009B                     	;# 
   135  009C                     	;# 
   136  009D                     	;# 
   137  009E                     	;# 
   138  010C                     	;# 
   139  010D                     	;# 
   140  0111                     	;# 
   141  0112                     	;# 
   142  0113                     	;# 
   143  0114                     	;# 
   144  0115                     	;# 
   145  0116                     	;# 
   146  0117                     	;# 
   147  0118                     	;# 
   148  0119                     	;# 
   149  011A                     	;# 
   150  011B                     	;# 
   151  011D                     	;# 
   152  011E                     	;# 
   153  018C                     	;# 
   154  018D                     	;# 
   155  0191                     	;# 
   156  0191                     	;# 
   157  0192                     	;# 
   158  0193                     	;# 
   159  0193                     	;# 
   160  0193                     	;# 
   161  0194                     	;# 
   162  0195                     	;# 
   163  0196                     	;# 
   164  0199                     	;# 
   165  019A                     	;# 
   166  019B                     	;# 
   167  019B                     	;# 
   168  019B                     	;# 
   169  019B                     	;# 
   170  019C                     	;# 
   171  019C                     	;# 
   172  019D                     	;# 
   173  019E                     	;# 
   174  019F                     	;# 
   175  020C                     	;# 
   176  020D                     	;# 
   177  0211                     	;# 
   178  0211                     	;# 
   179  0212                     	;# 
   180  0212                     	;# 
   181  0213                     	;# 
   182  0213                     	;# 
   183  0214                     	;# 
   184  0214                     	;# 
   185  0215                     	;# 
   186  0215                     	;# 
   187  0215                     	;# 
   188  0216                     	;# 
   189  0216                     	;# 
   190  0217                     	;# 
   191  0217                     	;# 
   192  0219                     	;# 
   193  021A                     	;# 
   194  021B                     	;# 
   195  021C                     	;# 
   196  021D                     	;# 
   197  021E                     	;# 
   198  021F                     	;# 
   199  0291                     	;# 
   200  0291                     	;# 
   201  0292                     	;# 
   202  0293                     	;# 
   203  0294                     	;# 
   204  0295                     	;# 
   205  0295                     	;# 
   206  0296                     	;# 
   207  0298                     	;# 
   208  0298                     	;# 
   209  0299                     	;# 
   210  029A                     	;# 
   211  029B                     	;# 
   212  029C                     	;# 
   213  029C                     	;# 
   214  029D                     	;# 
   215  029E                     	;# 
   216  029E                     	;# 
   217  0311                     	;# 
   218  0311                     	;# 
   219  0312                     	;# 
   220  0313                     	;# 
   221  0318                     	;# 
   222  0318                     	;# 
   223  0319                     	;# 
   224  031A                     	;# 
   225  0394                     	;# 
   226  0395                     	;# 
   227  0396                     	;# 
   228  039A                     	;# 
   229  039C                     	;# 
   230  039D                     	;# 
   231  039E                     	;# 
   232  039F                     	;# 
   233  0415                     	;# 
   234  0416                     	;# 
   235  0417                     	;# 
   236  041C                     	;# 
   237  041D                     	;# 
   238  041E                     	;# 
   239  0FE4                     	;# 
   240  0FE5                     	;# 
   241  0FE6                     	;# 
   242  0FE7                     	;# 
   243  0FE8                     	;# 
   244  0FE9                     	;# 
   245  0FEA                     	;# 
   246  0FEB                     	;# 
   247  0FED                     	;# 
   248  0FEE                     	;# 
   249  0FEF                     	;# 
   250  0000                     	;# 
   251  0001                     	;# 
   252  0002                     	;# 
   253  0003                     	;# 
   254  0004                     	;# 
   255  0005                     	;# 
   256  0006                     	;# 
   257  0007                     	;# 
   258  0008                     	;# 
   259  0009                     	;# 
   260  000A                     	;# 
   261  000B                     	;# 
   262  000C                     	;# 
   263  000D                     	;# 
   264  0011                     	;# 
   265  0012                     	;# 
   266  0013                     	;# 
   267  0014                     	;# 
   268  0015                     	;# 
   269  0016                     	;# 
   270  0016                     	;# 
   271  0017                     	;# 
   272  0018                     	;# 
   273  0019                     	;# 
   274  001A                     	;# 
   275  001B                     	;# 
   276  001C                     	;# 
   277  001E                     	;# 
   278  001F                     	;# 
   279  008C                     	;# 
   280  008D                     	;# 
   281  0091                     	;# 
   282  0092                     	;# 
   283  0093                     	;# 
   284  0094                     	;# 
   285  0095                     	;# 
   286  0096                     	;# 
   287  0097                     	;# 
   288  0098                     	;# 
   289  0099                     	;# 
   290  009A                     	;# 
   291  009B                     	;# 
   292  009B                     	;# 
   293  009C                     	;# 
   294  009D                     	;# 
   295  009E                     	;# 
   296  010C                     	;# 
   297  010D                     	;# 
   298  0111                     	;# 
   299  0112                     	;# 
   300  0113                     	;# 
   301  0114                     	;# 
   302  0115                     	;# 
   303  0116                     	;# 
   304  0117                     	;# 
   305  0118                     	;# 
   306  0119                     	;# 
   307  011A                     	;# 
   308  011B                     	;# 
   309  011D                     	;# 
   310  011E                     	;# 
   311  018C                     	;# 
   312  018D                     	;# 
   313  0191                     	;# 
   314  0191                     	;# 
   315  0192                     	;# 
   316  0193                     	;# 
   317  0193                     	;# 
   318  0193                     	;# 
   319  0194                     	;# 
   320  0195                     	;# 
   321  0196                     	;# 
   322  0199                     	;# 
   323  019A                     	;# 
   324  019B                     	;# 
   325  019B                     	;# 
   326  019B                     	;# 
   327  019B                     	;# 
   328  019C                     	;# 
   329  019C                     	;# 
   330  019D                     	;# 
   331  019E                     	;# 
   332  019F                     	;# 
   333  020C                     	;# 
   334  020D                     	;# 
   335  0211                     	;# 
   336  0211                     	;# 
   337  0212                     	;# 
   338  0212                     	;# 
   339  0213                     	;# 
   340  0213                     	;# 
   341  0214                     	;# 
   342  0214                     	;# 
   343  0215                     	;# 
   344  0215                     	;# 
   345  0215                     	;# 
   346  0216                     	;# 
   347  0216                     	;# 
   348  0217                     	;# 
   349  0217                     	;# 
   350  0219                     	;# 
   351  021A                     	;# 
   352  021B                     	;# 
   353  021C                     	;# 
   354  021D                     	;# 
   355  021E                     	;# 
   356  021F                     	;# 
   357  0291                     	;# 
   358  0291                     	;# 
   359  0292                     	;# 
   360  0293                     	;# 
   361  0294                     	;# 
   362  0295                     	;# 
   363  0295                     	;# 
   364  0296                     	;# 
   365  0298                     	;# 
   366  0298                     	;# 
   367  0299                     	;# 
   368  029A                     	;# 
   369  029B                     	;# 
   370  029C                     	;# 
   371  029C                     	;# 
   372  029D                     	;# 
   373  029E                     	;# 
   374  029E                     	;# 
   375  0311                     	;# 
   376  0311                     	;# 
   377  0312                     	;# 
   378  0313                     	;# 
   379  0318                     	;# 
   380  0318                     	;# 
   381  0319                     	;# 
   382  031A                     	;# 
   383  0394                     	;# 
   384  0395                     	;# 
   385  0396                     	;# 
   386  039A                     	;# 
   387  039C                     	;# 
   388  039D                     	;# 
   389  039E                     	;# 
   390  039F                     	;# 
   391  0415                     	;# 
   392  0416                     	;# 
   393  0417                     	;# 
   394  041C                     	;# 
   395  041D                     	;# 
   396  041E                     	;# 
   397  0FE4                     	;# 
   398  0FE5                     	;# 
   399  0FE6                     	;# 
   400  0FE7                     	;# 
   401  0FE8                     	;# 
   402  0FE9                     	;# 
   403  0FEA                     	;# 
   404  0FEB                     	;# 
   405  0FED                     	;# 
   406  0FEE                     	;# 
   407  0FEF                     	;# 
   408  0000                     	;# 
   409  0001                     	;# 
   410  0002                     	;# 
   411  0003                     	;# 
   412  0004                     	;# 
   413  0005                     	;# 
   414  0006                     	;# 
   415  0007                     	;# 
   416  0008                     	;# 
   417  0009                     	;# 
   418  000A                     	;# 
   419  000B                     	;# 
   420  000C                     	;# 
   421  000D                     	;# 
   422  0011                     	;# 
   423  0012                     	;# 
   424  0013                     	;# 
   425  0014                     	;# 
   426  0015                     	;# 
   427  0016                     	;# 
   428  0016                     	;# 
   429  0017                     	;# 
   430  0018                     	;# 
   431  0019                     	;# 
   432  001A                     	;# 
   433  001B                     	;# 
   434  001C                     	;# 
   435  001E                     	;# 
   436  001F                     	;# 
   437  008C                     	;# 
   438  008D                     	;# 
   439  0091                     	;# 
   440  0092                     	;# 
   441  0093                     	;# 
   442  0094                     	;# 
   443  0095                     	;# 
   444  0096                     	;# 
   445  0097                     	;# 
   446  0098                     	;# 
   447  0099                     	;# 
   448  009A                     	;# 
   449  009B                     	;# 
   450  009B                     	;# 
   451  009C                     	;# 
   452  009D                     	;# 
   453  009E                     	;# 
   454  010C                     	;# 
   455  010D                     	;# 
   456  0111                     	;# 
   457  0112                     	;# 
   458  0113                     	;# 
   459  0114                     	;# 
   460  0115                     	;# 
   461  0116                     	;# 
   462  0117                     	;# 
   463  0118                     	;# 
   464  0119                     	;# 
   465  011A                     	;# 
   466  011B                     	;# 
   467  011D                     	;# 
   468  011E                     	;# 
   469  018C                     	;# 
   470  018D                     	;# 
   471  0191                     	;# 
   472  0191                     	;# 
   473  0192                     	;# 
   474  0193                     	;# 
   475  0193                     	;# 
   476  0193                     	;# 
   477  0194                     	;# 
   478  0195                     	;# 
   479  0196                     	;# 
   480  0199                     	;# 
   481  019A                     	;# 
   482  019B                     	;# 
   483  019B                     	;# 
   484  019B                     	;# 
   485  019B                     	;# 
   486  019C                     	;# 
   487  019C                     	;# 
   488  019D                     	;# 
   489  019E                     	;# 
   490  019F                     	;# 
   491  020C                     	;# 
   492  020D                     	;# 
   493  0211                     	;# 
   494  0211                     	;# 
   495  0212                     	;# 
   496  0212                     	;# 
   497  0213                     	;# 
   498  0213                     	;# 
   499  0214                     	;# 
   500  0214                     	;# 
   501  0215                     	;# 
   502  0215                     	;# 
   503  0215                     	;# 
   504  0216                     	;# 
   505  0216                     	;# 
   506  0217                     	;# 
   507  0217                     	;# 
   508  0219                     	;# 
   509  021A                     	;# 
   510  021B                     	;# 
   511  021C                     	;# 
   512  021D                     	;# 
   513  021E                     	;# 
   514  021F                     	;# 
   515  0291                     	;# 
   516  0291                     	;# 
   517  0292                     	;# 
   518  0293                     	;# 
   519  0294                     	;# 
   520  0295                     	;# 
   521  0295                     	;# 
   522  0296                     	;# 
   523  0298                     	;# 
   524  0298                     	;# 
   525  0299                     	;# 
   526  029A                     	;# 
   527  029B                     	;# 
   528  029C                     	;# 
   529  029C                     	;# 
   530  029D                     	;# 
   531  029E                     	;# 
   532  029E                     	;# 
   533  0311                     	;# 
   534  0311                     	;# 
   535  0312                     	;# 
   536  0313                     	;# 
   537  0318                     	;# 
   538  0318                     	;# 
   539  0319                     	;# 
   540  031A                     	;# 
   541  0394                     	;# 
   542  0395                     	;# 
   543  0396                     	;# 
   544  039A                     	;# 
   545  039C                     	;# 
   546  039D                     	;# 
   547  039E                     	;# 
   548  039F                     	;# 
   549  0415                     	;# 
   550  0416                     	;# 
   551  0417                     	;# 
   552  041C                     	;# 
   553  041D                     	;# 
   554  041E                     	;# 
   555  0FE4                     	;# 
   556  0FE5                     	;# 
   557  0FE6                     	;# 
   558  0FE7                     	;# 
   559  0FE8                     	;# 
   560  0FE9                     	;# 
   561  0FEA                     	;# 
   562  0FEB                     	;# 
   563  0FED                     	;# 
   564  0FEE                     	;# 
   565  0FEF                     	;# 
   566  0000                     	;# 
   567  0001                     	;# 
   568  0002                     	;# 
   569  0003                     	;# 
   570  0004                     	;# 
   571  0005                     	;# 
   572  0006                     	;# 
   573  0007                     	;# 
   574  0008                     	;# 
   575  0009                     	;# 
   576  000A                     	;# 
   577  000B                     	;# 
   578  000C                     	;# 
   579  000D                     	;# 
   580  0011                     	;# 
   581  0012                     	;# 
   582  0013                     	;# 
   583  0014                     	;# 
   584  0015                     	;# 
   585  0016                     	;# 
   586  0016                     	;# 
   587  0017                     	;# 
   588  0018                     	;# 
   589  0019                     	;# 
   590  001A                     	;# 
   591  001B                     	;# 
   592  001C                     	;# 
   593  001E                     	;# 
   594  001F                     	;# 
   595  008C                     	;# 
   596  008D                     	;# 
   597  0091                     	;# 
   598  0092                     	;# 
   599  0093                     	;# 
   600  0094                     	;# 
   601  0095                     	;# 
   602  0096                     	;# 
   603  0097                     	;# 
   604  0098                     	;# 
   605  0099                     	;# 
   606  009A                     	;# 
   607  009B                     	;# 
   608  009B                     	;# 
   609  009C                     	;# 
   610  009D                     	;# 
   611  009E                     	;# 
   612  010C                     	;# 
   613  010D                     	;# 
   614  0111                     	;# 
   615  0112                     	;# 
   616  0113                     	;# 
   617  0114                     	;# 
   618  0115                     	;# 
   619  0116                     	;# 
   620  0117                     	;# 
   621  0118                     	;# 
   622  0119                     	;# 
   623  011A                     	;# 
   624  011B                     	;# 
   625  011D                     	;# 
   626  011E                     	;# 
   627  018C                     	;# 
   628  018D                     	;# 
   629  0191                     	;# 
   630  0191                     	;# 
   631  0192                     	;# 
   632  0193                     	;# 
   633  0193                     	;# 
   634  0193                     	;# 
   635  0194                     	;# 
   636  0195                     	;# 
   637  0196                     	;# 
   638  0199                     	;# 
   639  019A                     	;# 
   640  019B                     	;# 
   641  019B                     	;# 
   642  019B                     	;# 
   643  019B                     	;# 
   644  019C                     	;# 
   645  019C                     	;# 
   646  019D                     	;# 
   647  019E                     	;# 
   648  019F                     	;# 
   649  020C                     	;# 
   650  020D                     	;# 
   651  0211                     	;# 
   652  0211                     	;# 
   653  0212                     	;# 
   654  0212                     	;# 
   655  0213                     	;# 
   656  0213                     	;# 
   657  0214                     	;# 
   658  0214                     	;# 
   659  0215                     	;# 
   660  0215                     	;# 
   661  0215                     	;# 
   662  0216                     	;# 
   663  0216                     	;# 
   664  0217                     	;# 
   665  0217                     	;# 
   666  0219                     	;# 
   667  021A                     	;# 
   668  021B                     	;# 
   669  021C                     	;# 
   670  021D                     	;# 
   671  021E                     	;# 
   672  021F                     	;# 
   673  0291                     	;# 
   674  0291                     	;# 
   675  0292                     	;# 
   676  0293                     	;# 
   677  0294                     	;# 
   678  0295                     	;# 
   679  0295                     	;# 
   680  0296                     	;# 
   681  0298                     	;# 
   682  0298                     	;# 
   683  0299                     	;# 
   684  029A                     	;# 
   685  029B                     	;# 
   686  029C                     	;# 
   687  029C                     	;# 
   688  029D                     	;# 
   689  029E                     	;# 
   690  029E                     	;# 
   691  0311                     	;# 
   692  0311                     	;# 
   693  0312                     	;# 
   694  0313                     	;# 
   695  0318                     	;# 
   696  0318                     	;# 
   697  0319                     	;# 
   698  031A                     	;# 
   699  0394                     	;# 
   700  0395                     	;# 
   701  0396                     	;# 
   702  039A                     	;# 
   703  039C                     	;# 
   704  039D                     	;# 
   705  039E                     	;# 
   706  039F                     	;# 
   707  0415                     	;# 
   708  0416                     	;# 
   709  0417                     	;# 
   710  041C                     	;# 
   711  041D                     	;# 
   712  041E                     	;# 
   713  0FE4                     	;# 
   714  0FE5                     	;# 
   715  0FE6                     	;# 
   716  0FE7                     	;# 
   717  0FE8                     	;# 
   718  0FE9                     	;# 
   719  0FEA                     	;# 
   720  0FEB                     	;# 
   721  0FED                     	;# 
   722  0FEE                     	;# 
   723  0FEF                     	;# 
   724  0000                     	;# 
   725  0001                     	;# 
   726  0002                     	;# 
   727  0003                     	;# 
   728  0004                     	;# 
   729  0005                     	;# 
   730  0006                     	;# 
   731  0007                     	;# 
   732  0008                     	;# 
   733  0009                     	;# 
   734  000A                     	;# 
   735  000B                     	;# 
   736  000C                     	;# 
   737  000D                     	;# 
   738  0011                     	;# 
   739  0012                     	;# 
   740  0013                     	;# 
   741  0014                     	;# 
   742  0015                     	;# 
   743  0016                     	;# 
   744  0016                     	;# 
   745  0017                     	;# 
   746  0018                     	;# 
   747  0019                     	;# 
   748  001A                     	;# 
   749  001B                     	;# 
   750  001C                     	;# 
   751  001E                     	;# 
   752  001F                     	;# 
   753  008C                     	;# 
   754  008D                     	;# 
   755  0091                     	;# 
   756  0092                     	;# 
   757  0093                     	;# 
   758  0094                     	;# 
   759  0095                     	;# 
   760  0096                     	;# 
   761  0097                     	;# 
   762  0098                     	;# 
   763  0099                     	;# 
   764  009A                     	;# 
   765  009B                     	;# 
   766  009B                     	;# 
   767  009C                     	;# 
   768  009D                     	;# 
   769  009E                     	;# 
   770  010C                     	;# 
   771  010D                     	;# 
   772  0111                     	;# 
   773  0112                     	;# 
   774  0113                     	;# 
   775  0114                     	;# 
   776  0115                     	;# 
   777  0116                     	;# 
   778  0117                     	;# 
   779  0118                     	;# 
   780  0119                     	;# 
   781  011A                     	;# 
   782  011B                     	;# 
   783  011D                     	;# 
   784  011E                     	;# 
   785  018C                     	;# 
   786  018D                     	;# 
   787  0191                     	;# 
   788  0191                     	;# 
   789  0192                     	;# 
   790  0193                     	;# 
   791  0193                     	;# 
   792  0193                     	;# 
   793  0194                     	;# 
   794  0195                     	;# 
   795  0196                     	;# 
   796  0199                     	;# 
   797  019A                     	;# 
   798  019B                     	;# 
   799  019B                     	;# 
   800  019B                     	;# 
   801  019B                     	;# 
   802  019C                     	;# 
   803  019C                     	;# 
   804  019D                     	;# 
   805  019E                     	;# 
   806  019F                     	;# 
   807  020C                     	;# 
   808  020D                     	;# 
   809  0211                     	;# 
   810  0211                     	;# 
   811  0212                     	;# 
   812  0212                     	;# 
   813  0213                     	;# 
   814  0213                     	;# 
   815  0214                     	;# 
   816  0214                     	;# 
   817  0215                     	;# 
   818  0215                     	;# 
   819  0215                     	;# 
   820  0216                     	;# 
   821  0216                     	;# 
   822  0217                     	;# 
   823  0217                     	;# 
   824  0219                     	;# 
   825  021A                     	;# 
   826  021B                     	;# 
   827  021C                     	;# 
   828  021D                     	;# 
   829  021E                     	;# 
   830  021F                     	;# 
   831  0291                     	;# 
   832  0291                     	;# 
   833  0292                     	;# 
   834  0293                     	;# 
   835  0294                     	;# 
   836  0295                     	;# 
   837  0295                     	;# 
   838  0296                     	;# 
   839  0298                     	;# 
   840  0298                     	;# 
   841  0299                     	;# 
   842  029A                     	;# 
   843  029B                     	;# 
   844  029C                     	;# 
   845  029C                     	;# 
   846  029D                     	;# 
   847  029E                     	;# 
   848  029E                     	;# 
   849  0311                     	;# 
   850  0311                     	;# 
   851  0312                     	;# 
   852  0313                     	;# 
   853  0318                     	;# 
   854  0318                     	;# 
   855  0319                     	;# 
   856  031A                     	;# 
   857  0394                     	;# 
   858  0395                     	;# 
   859  0396                     	;# 
   860  039A                     	;# 
   861  039C                     	;# 
   862  039D                     	;# 
   863  039E                     	;# 
   864  039F                     	;# 
   865  0415                     	;# 
   866  0416                     	;# 
   867  0417                     	;# 
   868  041C                     	;# 
   869  041D                     	;# 
   870  041E                     	;# 
   871  0FE4                     	;# 
   872  0FE5                     	;# 
   873  0FE6                     	;# 
   874  0FE7                     	;# 
   875  0FE8                     	;# 
   876  0FE9                     	;# 
   877  0FEA                     	;# 
   878  0FEB                     	;# 
   879  0FED                     	;# 
   880  0FEE                     	;# 
   881  0FEF                     	;# 
   882  0000                     	;# 
   883  0001                     	;# 
   884  0002                     	;# 
   885  0003                     	;# 
   886  0004                     	;# 
   887  0005                     	;# 
   888  0006                     	;# 
   889  0007                     	;# 
   890  0008                     	;# 
   891  0009                     	;# 
   892  000A                     	;# 
   893  000B                     	;# 
   894  000C                     	;# 
   895  000D                     	;# 
   896  0011                     	;# 
   897  0012                     	;# 
   898  0013                     	;# 
   899  0014                     	;# 
   900  0015                     	;# 
   901  0016                     	;# 
   902  0016                     	;# 
   903  0017                     	;# 
   904  0018                     	;# 
   905  0019                     	;# 
   906  001A                     	;# 
   907  001B                     	;# 
   908  001C                     	;# 
   909  001E                     	;# 
   910  001F                     	;# 
   911  008C                     	;# 
   912  008D                     	;# 
   913  0091                     	;# 
   914  0092                     	;# 
   915  0093                     	;# 
   916  0094                     	;# 
   917  0095                     	;# 
   918  0096                     	;# 
   919  0097                     	;# 
   920  0098                     	;# 
   921  0099                     	;# 
   922  009A                     	;# 
   923  009B                     	;# 
   924  009B                     	;# 
   925  009C                     	;# 
   926  009D                     	;# 
   927  009E                     	;# 
   928  010C                     	;# 
   929  010D                     	;# 
   930  0111                     	;# 
   931  0112                     	;# 
   932  0113                     	;# 
   933  0114                     	;# 
   934  0115                     	;# 
   935  0116                     	;# 
   936  0117                     	;# 
   937  0118                     	;# 
   938  0119                     	;# 
   939  011A                     	;# 
   940  011B                     	;# 
   941  011D                     	;# 
   942  011E                     	;# 
   943  018C                     	;# 
   944  018D                     	;# 
   945  0191                     	;# 
   946  0191                     	;# 
   947  0192                     	;# 
   948  0193                     	;# 
   949  0193                     	;# 
   950  0193                     	;# 
   951  0194                     	;# 
   952  0195                     	;# 
   953  0196                     	;# 
   954  0199                     	;# 
   955  019A                     	;# 
   956  019B                     	;# 
   957  019B                     	;# 
   958  019B                     	;# 
   959  019B                     	;# 
   960  019C                     	;# 
   961  019C                     	;# 
   962  019D                     	;# 
   963  019E                     	;# 
   964  019F                     	;# 
   965  020C                     	;# 
   966  020D                     	;# 
   967  0211                     	;# 
   968  0211                     	;# 
   969  0212                     	;# 
   970  0212                     	;# 
   971  0213                     	;# 
   972  0213                     	;# 
   973  0214                     	;# 
   974  0214                     	;# 
   975  0215                     	;# 
   976  0215                     	;# 
   977  0215                     	;# 
   978  0216                     	;# 
   979  0216                     	;# 
   980  0217                     	;# 
   981  0217                     	;# 
   982  0219                     	;# 
   983  021A                     	;# 
   984  021B                     	;# 
   985  021C                     	;# 
   986  021D                     	;# 
   987  021E                     	;# 
   988  021F                     	;# 
   989  0291                     	;# 
   990  0291                     	;# 
   991  0292                     	;# 
   992  0293                     	;# 
   993  0294                     	;# 
   994  0295                     	;# 
   995  0295                     	;# 
   996  0296                     	;# 
   997  0298                     	;# 
   998  0298                     	;# 
   999  0299                     	;# 
  1000  029A                     	;# 
  1001  029B                     	;# 
  1002  029C                     	;# 
  1003  029C                     	;# 
  1004  029D                     	;# 
  1005  029E                     	;# 
  1006  029E                     	;# 
  1007  0311                     	;# 
  1008  0311                     	;# 
  1009  0312                     	;# 
  1010  0313                     	;# 
  1011  0318                     	;# 
  1012  0318                     	;# 
  1013  0319                     	;# 
  1014  031A                     	;# 
  1015  0394                     	;# 
  1016  0395                     	;# 
  1017  0396                     	;# 
  1018  039A                     	;# 
  1019  039C                     	;# 
  1020  039D                     	;# 
  1021  039E                     	;# 
  1022  039F                     	;# 
  1023  0415                     	;# 
  1024  0416                     	;# 
  1025  0417                     	;# 
  1026  041C                     	;# 
  1027  041D                     	;# 
  1028  041E                     	;# 
  1029  0FE4                     	;# 
  1030  0FE5                     	;# 
  1031  0FE6                     	;# 
  1032  0FE7                     	;# 
  1033  0FE8                     	;# 
  1034  0FE9                     	;# 
  1035  0FEA                     	;# 
  1036  0FEB                     	;# 
  1037  0FED                     	;# 
  1038  0FEE                     	;# 
  1039  0FEF                     	;# 
  1040  0000                     	;# 
  1041  0001                     	;# 
  1042  0002                     	;# 
  1043  0003                     	;# 
  1044  0004                     	;# 
  1045  0005                     	;# 
  1046  0006                     	;# 
  1047  0007                     	;# 
  1048  0008                     	;# 
  1049  0009                     	;# 
  1050  000A                     	;# 
  1051  000B                     	;# 
  1052  000C                     	;# 
  1053  000D                     	;# 
  1054  0011                     	;# 
  1055  0012                     	;# 
  1056  0013                     	;# 
  1057  0014                     	;# 
  1058  0015                     	;# 
  1059  0016                     	;# 
  1060  0016                     	;# 
  1061  0017                     	;# 
  1062  0018                     	;# 
  1063  0019                     	;# 
  1064  001A                     	;# 
  1065  001B                     	;# 
  1066  001C                     	;# 
  1067  001E                     	;# 
  1068  001F                     	;# 
  1069  008C                     	;# 
  1070  008D                     	;# 
  1071  0091                     	;# 
  1072  0092                     	;# 
  1073  0093                     	;# 
  1074  0094                     	;# 
  1075  0095                     	;# 
  1076  0096                     	;# 
  1077  0097                     	;# 
  1078  0098                     	;# 
  1079  0099                     	;# 
  1080  009A                     	;# 
  1081  009B                     	;# 
  1082  009B                     	;# 
  1083  009C                     	;# 
  1084  009D                     	;# 
  1085  009E                     	;# 
  1086  010C                     	;# 
  1087  010D                     	;# 
  1088  0111                     	;# 
  1089  0112                     	;# 
  1090  0113                     	;# 
  1091  0114                     	;# 
  1092  0115                     	;# 
  1093  0116                     	;# 
  1094  0117                     	;# 
  1095  0118                     	;# 
  1096  0119                     	;# 
  1097  011A                     	;# 
  1098  011B                     	;# 
  1099  011D                     	;# 
  1100  011E                     	;# 
  1101  018C                     	;# 
  1102  018D                     	;# 
  1103  0191                     	;# 
  1104  0191                     	;# 
  1105  0192                     	;# 
  1106  0193                     	;# 
  1107  0193                     	;# 
  1108  0193                     	;# 
  1109  0194                     	;# 
  1110  0195                     	;# 
  1111  0196                     	;# 
  1112  0199                     	;# 
  1113  019A                     	;# 
  1114  019B                     	;# 
  1115  019B                     	;# 
  1116  019B                     	;# 
  1117  019B                     	;# 
  1118  019C                     	;# 
  1119  019C                     	;# 
  1120  019D                     	;# 
  1121  019E                     	;# 
  1122  019F                     	;# 
  1123  020C                     	;# 
  1124  020D                     	;# 
  1125  0211                     	;# 
  1126  0211                     	;# 
  1127  0212                     	;# 
  1128  0212                     	;# 
  1129  0213                     	;# 
  1130  0213                     	;# 
  1131  0214                     	;# 
  1132  0214                     	;# 
  1133  0215                     	;# 
  1134  0215                     	;# 
  1135  0215                     	;# 
  1136  0216                     	;# 
  1137  0216                     	;# 
  1138  0217                     	;# 
  1139  0217                     	;# 
  1140  0219                     	;# 
  1141  021A                     	;# 
  1142  021B                     	;# 
  1143  021C                     	;# 
  1144  021D                     	;# 
  1145  021E                     	;# 
  1146  021F                     	;# 
  1147  0291                     	;# 
  1148  0291                     	;# 
  1149  0292                     	;# 
  1150  0293                     	;# 
  1151  0294                     	;# 
  1152  0295                     	;# 
  1153  0295                     	;# 
  1154  0296                     	;# 
  1155  0298                     	;# 
  1156  0298                     	;# 
  1157  0299                     	;# 
  1158  029A                     	;# 
  1159  029B                     	;# 
  1160  029C                     	;# 
  1161  029C                     	;# 
  1162  029D                     	;# 
  1163  029E                     	;# 
  1164  029E                     	;# 
  1165  0311                     	;# 
  1166  0311                     	;# 
  1167  0312                     	;# 
  1168  0313                     	;# 
  1169  0318                     	;# 
  1170  0318                     	;# 
  1171  0319                     	;# 
  1172  031A                     	;# 
  1173  0394                     	;# 
  1174  0395                     	;# 
  1175  0396                     	;# 
  1176  039A                     	;# 
  1177  039C                     	;# 
  1178  039D                     	;# 
  1179  039E                     	;# 
  1180  039F                     	;# 
  1181  0415                     	;# 
  1182  0416                     	;# 
  1183  0417                     	;# 
  1184  041C                     	;# 
  1185  041D                     	;# 
  1186  041E                     	;# 
  1187  0FE4                     	;# 
  1188  0FE5                     	;# 
  1189  0FE6                     	;# 
  1190  0FE7                     	;# 
  1191  0FE8                     	;# 
  1192  0FE9                     	;# 
  1193  0FEA                     	;# 
  1194  0FEB                     	;# 
  1195  0FED                     	;# 
  1196  0FEE                     	;# 
  1197  0FEF                     	;# 
  1198                           
  1199 ;; Function _I2C1_SlaveDefBusColInterruptHandler is unused but had its address taken
  1200  0000                     
  1201                           	psect	nvBANK0
  1202  0035                     __pnvBANK0:	
  1203  0035                     _TMR1_InterruptHandler:	
  1204  0035                     	ds	2
  1205  0037                     _timer1ReloadVal:	
  1206  0037                     	ds	2
  1207  0012                     _PIR2bits	set	18
  1208  000B                     _INTCONbits	set	11
  1209  0019                     _T1GCONbits	set	25
  1210  0018                     _T1CONbits	set	24
  1211  0018                     _T1CON	set	24
  1212  0011                     _PIR1bits	set	17
  1213  0016                     _TMR1L	set	22
  1214  0017                     _TMR1H	set	23
  1215  0019                     _T1GCON	set	25
  1216  0095                     _OPTION_REGbits	set	149
  1217  008D                     _TRISB	set	141
  1218  008C                     _TRISA	set	140
  1219  0097                     _WDTCON	set	151
  1220  0098                     _OSCTUNE	set	152
  1221  0099                     _OSCCON	set	153
  1222  0092                     _PIE2bits	set	146
  1223  0091                     _PIE1bits	set	145
  1224  010D                     _LATBbits	set	269
  1225  010C                     _LATAbits	set	268
  1226  011E                     _APFCON1	set	286
  1227  011D                     _APFCON0	set	285
  1228  010D                     _LATB	set	269
  1229  010C                     _LATA	set	268
  1230  0116                     _BORCON	set	278
  1231  018C                     _ANSELA	set	396
  1232  018D                     _ANSELB	set	397
  1233  020C                     _WPUA	set	524
  1234  020D                     _WPUB	set	525
  1235  0211                     _SSP1BUF	set	529
  1236  0216                     _SSP1CON2bits	set	534
  1237  0214                     _SSP1STATbits	set	532
  1238  0213                     _SSP1MSK	set	531
  1239  0212                     _SSP1ADD	set	530
  1240  0215                     _SSP1CON1bits	set	533
  1241  0216                     _SSP1CON2	set	534
  1242  0215                     _SSP1CON1	set	533
  1243  0214                     _SSP1STAT	set	532
  1244                           
  1245                           ; #config settings
  1246  0000                     
  1247                           	psect	cinit
  1248  0037                     start_initialization:	
  1249  0037                     __initialization:	
  1250                           
  1251                           ; Clear objects allocated to COMMON
  1252  0037  3070               	movlw	low __pbssCOMMON
  1253  0038  0084               	movwf	4
  1254  0039  3000               	movlw	high __pbssCOMMON
  1255  003A  0085               	movwf	5
  1256  003B  3009               	movlw	9
  1257  003C  3182  2277  3180   	fcall	clear_ram0
  1258                           
  1259                           ; Clear objects allocated to BANK0
  1260  003F  3020               	movlw	low __pbssBANK0
  1261  0040  0084               	movwf	4
  1262  0041  3000               	movlw	high __pbssBANK0
  1263  0042  0085               	movwf	5
  1264  0043  3015               	movlw	21
  1265  0044  3182  2277  3180   	fcall	clear_ram0
  1266  0047                     end_of_initialization:	
  1267                           ;End of C runtime variable initialization code
  1268                           
  1269  0047                     __end_of__initialization:	
  1270  0047  107E               	bcf	int$flags,0	;clear compiler interrupt flag (level 1)
  1271  0048  0020               	movlb	0
  1272  0049  3181  297A         	ljmp	_main	;jump to C main() function
  1273                           
  1274                           	psect	bssCOMMON
  1275  0070                     __pbssCOMMON:	
  1276  0070                     _DisplayCnt:	
  1277  0070                     	ds	2
  1278  0072                     _I2C_ReadCnt:	
  1279  0072                     	ds	1
  1280  0073                     _DisplayNum:	
  1281  0073                     	ds	1
  1282  0074                     _i2c1SlaveAddr:	
  1283  0074                     	ds	1
  1284  0075                     _i2c1RdData:	
  1285  0075                     	ds	1
  1286  0076                     _i2c1WrData:	
  1287  0076                     	ds	1
  1288  0077                     _i2c1NextState:	
  1289  0077                     	ds	1
  1290  0078                     _i2c1State:	
  1291  0078                     	ds	1
  1292                           
  1293                           	psect	bssBANK0
  1294  0020                     __pbssBANK0:	
  1295  0020                     _DisplayVal:	
  1296  0020                     	ds	6
  1297  0026                     _I2C1_SlaveWrColInterruptHandler:	
  1298  0026                     	ds	2
  1299  0028                     _I2C1_SlaveBusColInterruptHandler:	
  1300  0028                     	ds	2
  1301  002A                     _I2C1_SlaveAddrInterruptHandler:	
  1302  002A                     	ds	2
  1303  002C                     _I2C1_SlaveWrInterruptHandler:	
  1304  002C                     	ds	2
  1305  002E                     _I2C1_SlaveRdInterruptHandler:	
  1306  002E                     	ds	2
  1307  0030                     _MSSP1_InterruptHandler:	
  1308  0030                     	ds	2
  1309  0032                     _I2C_RxBuf:	
  1310  0032                     	ds	1
  1311  0033                     _DisplayErrNum:	
  1312  0033                     	ds	1
  1313  0034                     _DisplayPhase:	
  1314  0034                     	ds	1
  1315                           
  1316                           	psect	clrtext
  1317  0277                     clear_ram0:	
  1318                           ;	Called with FSR0 containing the base address, and
  1319                           ;	WREG with the size to clear
  1320                           
  1321  0277  0064               	clrwdt	;clear the watchdog before getting into this loop
  1322  0278                     clrloop0:	
  1323  0278  0180               	clrf	0	;clear RAM location pointed to by FSR
  1324  0279  3101               	addfsr 0,1
  1325  027A  0B89               	decfsz	9,f	;Have we reached the end of clearing yet?
  1326  027B  2A78               	goto	clrloop0	;have we reached the end yet?
  1327  027C  3400               	retlw	0	;all done for this memory range, return
  1328                           
  1329                           	psect	cstackCOMMON
  1330  0079                     __pcstackCOMMON:	
  1331  0079                     ?_TMR1_DefaultInterruptHandler:	
  1332  0079                     ??_TMR1_DefaultInterruptHandler:	
  1333                           ; 1 bytes @ 0x0
  1334                           
  1335  0079                     ?_I2C1_SlaveOpen:	
  1336                           ; 1 bytes @ 0x0
  1337                           
  1338  0079                     ?_I2C1_SlaveSetSlaveAddr:	
  1339                           ; 1 bytes @ 0x0
  1340                           
  1341  0079                     ?_I2C1_SlaveSetSlaveMask:	
  1342                           ; 1 bytes @ 0x0
  1343                           
  1344  0079                     ?_I2C1_Isr:	
  1345                           ; 1 bytes @ 0x0
  1346                           
  1347  0079                     ?_I2C1_SlaveDefWrInterruptHandler:	
  1348                           ; 1 bytes @ 0x0
  1349                           
  1350  0079                     ?_I2C1_SlaveDefRdInterruptHandler:	
  1351                           ; 1 bytes @ 0x0
  1352                           
  1353  0079                     ??_I2C1_SlaveDefRdInterruptHandler:	
  1354                           ; 1 bytes @ 0x0
  1355                           
  1356  0079                     ?_I2C1_SlaveDefAddrInterruptHandler:	
  1357                           ; 1 bytes @ 0x0
  1358                           
  1359  0079                     ??_I2C1_SlaveDefAddrInterruptHandler:	
  1360                           ; 1 bytes @ 0x0
  1361                           
  1362  0079                     ?_I2C1_SlaveDefWrColInterruptHandler:	
  1363                           ; 1 bytes @ 0x0
  1364                           
  1365  0079                     ??_I2C1_SlaveDefWrColInterruptHandler:	
  1366                           ; 1 bytes @ 0x0
  1367                           
  1368  0079                     ?_I2C1_SlaveEnableIrq:	
  1369                           ; 1 bytes @ 0x0
  1370                           
  1371  0079                     ?_I2C1_SlaveGetRxData:	
  1372                           ; 1 bytes @ 0x0
  1373                           
  1374  0079                     ??_I2C1_SlaveGetRxData:	
  1375                           ; 1 bytes @ 0x0
  1376                           
  1377  0079                     ?_I2C1_SlaveSendTxData:	
  1378                           ; 1 bytes @ 0x0
  1379                           
  1380  0079                     ??_I2C1_SlaveSendTxData:	
  1381                           ; 1 bytes @ 0x0
  1382                           
  1383  0079                     ?_I2C1_SlaveClearIrq:	
  1384                           ; 1 bytes @ 0x0
  1385                           
  1386  0079                     ??_I2C1_SlaveClearIrq:	
  1387                           ; 1 bytes @ 0x0
  1388                           
  1389  0079                     ?_I2C1_SlaveIsRead:	
  1390                           ; 1 bytes @ 0x0
  1391                           
  1392  0079                     ??_I2C1_SlaveIsRead:	
  1393                           ; 1 bytes @ 0x0
  1394                           
  1395  0079                     ?_I2C1_SlaveIsWriteCollision:	
  1396                           ; 1 bytes @ 0x0
  1397                           
  1398  0079                     ??_I2C1_SlaveIsWriteCollision:	
  1399                           ; 1 bytes @ 0x0
  1400                           
  1401  0079                     ?_I2C1_SlaveWrCallBack:	
  1402                           ; 1 bytes @ 0x0
  1403                           
  1404  0079                     ?_I2C1_SlaveWrColCallBack:	
  1405                           ; 1 bytes @ 0x0
  1406                           
  1407  0079                     ??_I2C1_SlaveWrColCallBack:	
  1408                           ; 1 bytes @ 0x0
  1409                           
  1410  0079                     ?_I2C1_SlaveRestart:	
  1411                           ; 1 bytes @ 0x0
  1412                           
  1413  0079                     ??_I2C1_SlaveRestart:	
  1414                           ; 1 bytes @ 0x0
  1415                           
  1416  0079                     ?_I2C1_SlaveIsData:	
  1417                           ; 1 bytes @ 0x0
  1418                           
  1419  0079                     ??_I2C1_SlaveIsData:	
  1420                           ; 1 bytes @ 0x0
  1421                           
  1422  0079                     ?_I2C1_SlaveRdCallBack:	
  1423                           ; 1 bytes @ 0x0
  1424                           
  1425  0079                     ?_I2C1_SlaveAddrCallBack:	
  1426                           ; 1 bytes @ 0x0
  1427                           
  1428  0079                     ?_I2C1_SlaveReleaseClock:	
  1429                           ; 1 bytes @ 0x0
  1430                           
  1431  0079                     ??_I2C1_SlaveReleaseClock:	
  1432                           ; 1 bytes @ 0x0
  1433                           
  1434  0079                     ?_I2C1_SlaveGetAddr:	
  1435                           ; 1 bytes @ 0x0
  1436                           
  1437  0079                     ??_I2C1_SlaveGetAddr:	
  1438                           ; 1 bytes @ 0x0
  1439                           
  1440  0079                     ?_PIN_MANAGER_Initialize:	
  1441                           ; 1 bytes @ 0x0
  1442                           
  1443  0079                     ?_OSCILLATOR_Initialize:	
  1444                           ; 1 bytes @ 0x0
  1445                           
  1446  0079                     ?_WDT_Initialize:	
  1447                           ; 1 bytes @ 0x0
  1448                           
  1449  0079                     ?_TMR1_Initialize:	
  1450                           ; 1 bytes @ 0x0
  1451                           
  1452  0079                     ?_TMR1_StartTimer:	
  1453                           ; 1 bytes @ 0x0
  1454                           
  1455  0079                     ?_TMR1_WriteTimer:	
  1456                           ; 1 bytes @ 0x0
  1457                           
  1458  0079                     ?_TMR1_ISR:	
  1459                           ; 1 bytes @ 0x0
  1460                           
  1461  0079                     ?_I2C1_Initialize:	
  1462                           ; 1 bytes @ 0x0
  1463                           
  1464  0079                     ?_I2C1_Open:	
  1465                           ; 1 bytes @ 0x0
  1466                           
  1467  0079                     ?_INTERRUPT_InterruptManager:	
  1468                           ; 1 bytes @ 0x0
  1469                           
  1470  0079                     ?_SYSTEM_Initialize:	
  1471                           ; 1 bytes @ 0x0
  1472                           
  1473  0079                     ?_Timer_ISR:	
  1474                           ; 1 bytes @ 0x0
  1475                           
  1476  0079                     ??_Timer_ISR:	
  1477                           ; 1 bytes @ 0x0
  1478                           
  1479  0079                     ?_I2C1_ReadISR:	
  1480                           ; 1 bytes @ 0x0
  1481                           
  1482  0079                     ??_I2C1_ReadISR:	
  1483                           ; 1 bytes @ 0x0
  1484                           
  1485  0079                     ?_I2C1_AddrISR:	
  1486                           ; 1 bytes @ 0x0
  1487                           
  1488  0079                     ??_I2C1_AddrISR:	
  1489                           ; 1 bytes @ 0x0
  1490                           
  1491  0079                     ?_main:	
  1492                           ; 1 bytes @ 0x0
  1493                           
  1494  0079                     I2C1_SlaveSendTxData@data:	
  1495                           ; 1 bytes @ 0x0
  1496                           
  1497  0079                     TMR1_WriteTimer@timerVal:	
  1498                           ; 1 bytes @ 0x0
  1499                           
  1500                           
  1501                           ; 2 bytes @ 0x0
  1502  0079                     	ds	1
  1503  007A                     ??_I2C1_Isr:	
  1504  007A                     ??_I2C1_SlaveDefWrInterruptHandler:	
  1505                           ; 1 bytes @ 0x1
  1506                           
  1507  007A                     ??_I2C1_SlaveWrCallBack:	
  1508                           ; 1 bytes @ 0x1
  1509                           
  1510  007A                     ??_I2C1_SlaveRdCallBack:	
  1511                           ; 1 bytes @ 0x1
  1512                           
  1513  007A                     ??_I2C1_SlaveAddrCallBack:	
  1514                           ; 1 bytes @ 0x1
  1515                           
  1516                           
  1517                           ; 1 bytes @ 0x1
  1518  007A                     	ds	1
  1519  007B                     ??_TMR1_WriteTimer:	
  1520  007B                     ??_TMR1_ISR:	
  1521                           ; 1 bytes @ 0x2
  1522                           
  1523                           
  1524                           ; 1 bytes @ 0x2
  1525  007B                     	ds	1
  1526  007C                     ??_INTERRUPT_InterruptManager:	
  1527                           
  1528                           	psect	cstackBANK0
  1529  0039                     __pcstackBANK0:	
  1530                           ; 1 bytes @ 0x3
  1531                           
  1532  0039                     ?_TMR1_SetInterruptHandler:	
  1533  0039                     ??_I2C1_SlaveOpen:	
  1534                           ; 1 bytes @ 0x0
  1535                           
  1536  0039                     ??_I2C1_SlaveSetSlaveAddr:	
  1537                           ; 1 bytes @ 0x0
  1538                           
  1539  0039                     ??_I2C1_SlaveSetSlaveMask:	
  1540                           ; 1 bytes @ 0x0
  1541                           
  1542  0039                     ?_I2C1_SlaveSetIsrHandler:	
  1543                           ; 1 bytes @ 0x0
  1544                           
  1545  0039                     ?_I2C1_SlaveSetBusColIntHandler:	
  1546                           ; 1 bytes @ 0x0
  1547                           
  1548  0039                     ?_I2C1_SlaveSetWriteIntHandler:	
  1549                           ; 1 bytes @ 0x0
  1550                           
  1551  0039                     ?_I2C1_SlaveSetReadIntHandler:	
  1552                           ; 1 bytes @ 0x0
  1553                           
  1554  0039                     ?_I2C1_SlaveSetAddrIntHandler:	
  1555                           ; 1 bytes @ 0x0
  1556                           
  1557  0039                     ?_I2C1_SlaveSetWrColIntHandler:	
  1558                           ; 1 bytes @ 0x0
  1559                           
  1560  0039                     ??_I2C1_SlaveEnableIrq:	
  1561                           ; 1 bytes @ 0x0
  1562                           
  1563  0039                     ??_PIN_MANAGER_Initialize:	
  1564                           ; 1 bytes @ 0x0
  1565                           
  1566  0039                     ??_OSCILLATOR_Initialize:	
  1567                           ; 1 bytes @ 0x0
  1568                           
  1569  0039                     ??_WDT_Initialize:	
  1570                           ; 1 bytes @ 0x0
  1571                           
  1572  0039                     ??_TMR1_StartTimer:	
  1573                           ; 1 bytes @ 0x0
  1574                           
  1575  0039                     ??_I2C1_Initialize:	
  1576                           ; 1 bytes @ 0x0
  1577                           
  1578  0039                     I2C1_SlaveSetSlaveAddr@slaveAddr:	
  1579                           ; 1 bytes @ 0x0
  1580                           
  1581  0039                     I2C1_SlaveSetSlaveMask@maskAddr:	
  1582                           ; 1 bytes @ 0x0
  1583                           
  1584  0039                     TMR1_SetInterruptHandler@InterruptHandler:	
  1585                           ; 1 bytes @ 0x0
  1586                           
  1587  0039                     I2C1_SlaveSetIsrHandler@handler:	
  1588                           ; 2 bytes @ 0x0
  1589                           
  1590  0039                     I2C1_SlaveSetReadIntHandler@handler:	
  1591                           ; 2 bytes @ 0x0
  1592                           
  1593  0039                     I2C1_SlaveSetWriteIntHandler@handler:	
  1594                           ; 2 bytes @ 0x0
  1595                           
  1596  0039                     I2C1_SlaveSetAddrIntHandler@handler:	
  1597                           ; 2 bytes @ 0x0
  1598                           
  1599  0039                     I2C1_SlaveSetWrColIntHandler@handler:	
  1600                           ; 2 bytes @ 0x0
  1601                           
  1602  0039                     I2C1_SlaveSetBusColIntHandler@handler:	
  1603                           ; 2 bytes @ 0x0
  1604                           
  1605                           
  1606                           ; 2 bytes @ 0x0
  1607  0039                     	ds	2
  1608  003B                     ??_TMR1_SetInterruptHandler:	
  1609  003B                     ??_I2C1_SlaveSetIsrHandler:	
  1610                           ; 1 bytes @ 0x2
  1611                           
  1612  003B                     ??_I2C1_SlaveSetBusColIntHandler:	
  1613                           ; 1 bytes @ 0x2
  1614                           
  1615  003B                     ??_I2C1_SlaveSetWriteIntHandler:	
  1616                           ; 1 bytes @ 0x2
  1617                           
  1618  003B                     ??_I2C1_SlaveSetReadIntHandler:	
  1619                           ; 1 bytes @ 0x2
  1620                           
  1621  003B                     ??_I2C1_SlaveSetAddrIntHandler:	
  1622                           ; 1 bytes @ 0x2
  1623                           
  1624  003B                     ??_I2C1_SlaveSetWrColIntHandler:	
  1625                           ; 1 bytes @ 0x2
  1626                           
  1627  003B                     ??_TMR1_Initialize:	
  1628                           ; 1 bytes @ 0x2
  1629                           
  1630  003B                     ??_I2C1_Open:	
  1631                           ; 1 bytes @ 0x2
  1632                           
  1633  003B                     ??_SYSTEM_Initialize:	
  1634                           ; 1 bytes @ 0x2
  1635                           
  1636  003B                     ??_main:	
  1637                           ; 1 bytes @ 0x2
  1638                           
  1639                           
  1640                           	psect	maintext
  1641  017A                     __pmaintext:	
  1642                           ; 1 bytes @ 0x2
  1643 ;;
  1644 ;;Main: autosize = 0, tempsize = 0, incstack = 0, save=0
  1645 ;;
  1646 ;; *************** function _main *****************
  1647 ;; Defined at:
  1648 ;;		line 76 in file "main.c"
  1649 ;; Parameters:    Size  Location     Type
  1650 ;;		None
  1651 ;; Auto vars:     Size  Location     Type
  1652 ;;		None
  1653 ;; Return value:  Size  Location     Type
  1654 ;;                  1    wreg      void 
  1655 ;; Registers used:
  1656 ;;		wreg, status,2, status,0, pclath, cstack
  1657 ;; Tracked objects:
  1658 ;;		On entry : B1F/0
  1659 ;;		On exit  : 0/0
  1660 ;;		Unchanged: 0/0
  1661 ;; Data sizes:     COMMON   BANK0   BANK1   BANK2   BANK3   BANK4
  1662 ;;      Params:         0       0       0       0       0       0
  1663 ;;      Locals:         0       0       0       0       0       0
  1664 ;;      Temps:          0       0       0       0       0       0
  1665 ;;      Totals:         0       0       0       0       0       0
  1666 ;;Total ram usage:        0 bytes
  1667 ;; Hardware stack levels required when called:    8
  1668 ;; This function calls:
  1669 ;;		_I2C1_Open
  1670 ;;		_I2C1_SlaveSetAddrIntHandler
  1671 ;;		_I2C1_SlaveSetReadIntHandler
  1672 ;;		_SYSTEM_Initialize
  1673 ;;		_TMR1_SetInterruptHandler
  1674 ;;		_TMR1_StartTimer
  1675 ;; This function is called by:
  1676 ;;		Startup code after reset
  1677 ;; This function uses a non-reentrant model
  1678 ;;
  1679                           
  1680                           
  1681                           ;psect for function _main
  1682  017A                     _main:	
  1683  017A                     l1857:	
  1684                           ;incstack = 0
  1685                           ; Regs used in _main: [wreg+status,2+status,0+pclath+cstack]
  1686                           
  1687                           
  1688                           ;main.c: 78:     SYSTEM_Initialize();
  1689  017A  3181  21F5  3181   	fcall	_SYSTEM_Initialize
  1690                           
  1691                           ;main.c: 81:     TMR1_SetInterruptHandler(Timer_ISR);
  1692  017D  304B               	movlw	low _Timer_ISR
  1693  017E  0020               	movlb	0	; select bank0
  1694  017F  00B9               	movwf	TMR1_SetInterruptHandler@InterruptHandler
  1695  0180  3000               	movlw	high _Timer_ISR
  1696  0181  00BA               	movwf	TMR1_SetInterruptHandler@InterruptHandler+1
  1697  0182  3182  227D  3181   	fcall	_TMR1_SetInterruptHandler
  1698  0185                     l1859:	
  1699                           
  1700                           ;main.c: 84:     (INTCONbits.GIE = 1);
  1701  0185  178B               	bsf	11,7	;volatile
  1702  0186                     l1861:	
  1703                           
  1704                           ;main.c: 85:     (INTCONbits.PEIE = 1);
  1705  0186  170B               	bsf	11,6	;volatile
  1706  0187                     l1863:	
  1707                           
  1708                           ;main.c: 88:     TMR1_StartTimer();
  1709  0187  3182  22D0  3181   	fcall	_TMR1_StartTimer
  1710  018A                     l1865:	
  1711                           
  1712                           ;main.c: 91:     I2C1_Open();
  1713  018A  3181  213B  3181   	fcall	_I2C1_Open
  1714  018D                     l1867:	
  1715                           
  1716                           ;main.c: 92:     I2C1_SlaveSetReadIntHandler(I2C1_ReadISR);
  1717  018D  303C               	movlw	low _I2C1_ReadISR
  1718  018E  0020               	movlb	0	; select bank0
  1719  018F  00B9               	movwf	I2C1_SlaveSetReadIntHandler@handler
  1720  0190  3002               	movlw	high _I2C1_ReadISR
  1721  0191  00BA               	movwf	I2C1_SlaveSetReadIntHandler@handler+1
  1722  0192  3182  229B  3181   	fcall	_I2C1_SlaveSetReadIntHandler
  1723  0195                     l1869:	
  1724                           
  1725                           ;main.c: 93:     I2C1_SlaveSetAddrIntHandler(I2C1_AddrISR);
  1726  0195  30E5               	movlw	low _I2C1_AddrISR
  1727  0196  0020               	movlb	0	; select bank0
  1728  0197  00B9               	movwf	I2C1_SlaveSetAddrIntHandler@handler
  1729  0198  3002               	movlw	high _I2C1_AddrISR
  1730  0199  00BA               	movwf	I2C1_SlaveSetAddrIntHandler@handler+1
  1731  019A  3182  22AD  3181   	fcall	_I2C1_SlaveSetAddrIntHandler
  1732  019D                     l548:	
  1733                           ;main.c: 95:     while(1)
  1734                           
  1735  019D                     l549:	
  1736                           ;main.c: 96:     {;main.c: 98:     }
  1737                           
  1738  019D  299D               	goto	l548
  1739  019E  3180  2835         	ljmp	start
  1740  01A0                     __end_of_main:	
  1741                           
  1742                           	psect	text1
  1743  02D0                     __ptext1:	
  1744 ;; *************** function _TMR1_StartTimer *****************
  1745 ;; Defined at:
  1746 ;;		line 93 in file "mcc_generated_files/tmr1.c"
  1747 ;; Parameters:    Size  Location     Type
  1748 ;;		None
  1749 ;; Auto vars:     Size  Location     Type
  1750 ;;		None
  1751 ;; Return value:  Size  Location     Type
  1752 ;;                  1    wreg      void 
  1753 ;; Registers used:
  1754 ;;		None
  1755 ;; Tracked objects:
  1756 ;;		On entry : 0/0
  1757 ;;		On exit  : 0/0
  1758 ;;		Unchanged: 0/0
  1759 ;; Data sizes:     COMMON   BANK0   BANK1   BANK2   BANK3   BANK4
  1760 ;;      Params:         0       0       0       0       0       0
  1761 ;;      Locals:         0       0       0       0       0       0
  1762 ;;      Temps:          0       0       0       0       0       0
  1763 ;;      Totals:         0       0       0       0       0       0
  1764 ;;Total ram usage:        0 bytes
  1765 ;; Hardware stack levels used:    1
  1766 ;; Hardware stack levels required when called:    5
  1767 ;; This function calls:
  1768 ;;		Nothing
  1769 ;; This function is called by:
  1770 ;;		_main
  1771 ;; This function uses a non-reentrant model
  1772 ;;
  1773                           
  1774                           
  1775                           ;psect for function _TMR1_StartTimer
  1776  02D0                     _TMR1_StartTimer:	
  1777  02D0                     l1847:	
  1778                           ;incstack = 0
  1779                           ; Regs used in _TMR1_StartTimer: []
  1780                           
  1781                           
  1782                           ;mcc_generated_files/tmr1.c: 96:     T1CONbits.TMR1ON = 1;
  1783  02D0  0020               	movlb	0	; select bank0
  1784  02D1  1418               	bsf	24,0	;volatile
  1785  02D2                     l30:	
  1786  02D2  0008               	return
  1787  02D3                     __end_of_TMR1_StartTimer:	
  1788                           
  1789                           	psect	text2
  1790  01F5                     __ptext2:	
  1791 ;; *************** function _SYSTEM_Initialize *****************
  1792 ;; Defined at:
  1793 ;;		line 50 in file "mcc_generated_files/mcc.c"
  1794 ;; Parameters:    Size  Location     Type
  1795 ;;		None
  1796 ;; Auto vars:     Size  Location     Type
  1797 ;;		None
  1798 ;; Return value:  Size  Location     Type
  1799 ;;                  1    wreg      void 
  1800 ;; Registers used:
  1801 ;;		wreg, status,2, status,0, pclath, cstack
  1802 ;; Tracked objects:
  1803 ;;		On entry : 0/0
  1804 ;;		On exit  : 0/0
  1805 ;;		Unchanged: 0/0
  1806 ;; Data sizes:     COMMON   BANK0   BANK1   BANK2   BANK3   BANK4
  1807 ;;      Params:         0       0       0       0       0       0
  1808 ;;      Locals:         0       0       0       0       0       0
  1809 ;;      Temps:          0       0       0       0       0       0
  1810 ;;      Totals:         0       0       0       0       0       0
  1811 ;;Total ram usage:        0 bytes
  1812 ;; Hardware stack levels used:    1
  1813 ;; Hardware stack levels required when called:    7
  1814 ;; This function calls:
  1815 ;;		_I2C1_Initialize
  1816 ;;		_OSCILLATOR_Initialize
  1817 ;;		_PIN_MANAGER_Initialize
  1818 ;;		_TMR1_Initialize
  1819 ;;		_WDT_Initialize
  1820 ;; This function is called by:
  1821 ;;		_main
  1822 ;; This function uses a non-reentrant model
  1823 ;;
  1824                           
  1825                           
  1826                           ;psect for function _SYSTEM_Initialize
  1827  01F5                     _SYSTEM_Initialize:	
  1828  01F5                     l1853:	
  1829                           ;incstack = 0
  1830                           ; Regs used in _SYSTEM_Initialize: [wreg+status,2+status,0+pclath+cstack]
  1831                           
  1832                           
  1833                           ;mcc_generated_files/mcc.c: 53:     I2C1_Initialize();
  1834  01F5  3182  2256  3181   	fcall	_I2C1_Initialize
  1835                           
  1836                           ;mcc_generated_files/mcc.c: 54:     PIN_MANAGER_Initialize();
  1837  01F8  3181  21CF  3181   	fcall	_PIN_MANAGER_Initialize
  1838                           
  1839                           ;mcc_generated_files/mcc.c: 55:     OSCILLATOR_Initialize();
  1840  01FB  3182  2262  3181   	fcall	_OSCILLATOR_Initialize
  1841                           
  1842                           ;mcc_generated_files/mcc.c: 56:     WDT_Initialize();
  1843  01FE  3182  22CC  3181   	fcall	_WDT_Initialize
  1844                           
  1845                           ;mcc_generated_files/mcc.c: 57:     TMR1_Initialize();
  1846  0201  3181  21A0  3181   	fcall	_TMR1_Initialize
  1847  0204                     l387:	
  1848  0204  0008               	return
  1849  0205                     __end_of_SYSTEM_Initialize:	
  1850                           
  1851                           	psect	text3
  1852  02CC                     __ptext3:	
  1853 ;; *************** function _WDT_Initialize *****************
  1854 ;; Defined at:
  1855 ;;		line 70 in file "mcc_generated_files/mcc.c"
  1856 ;; Parameters:    Size  Location     Type
  1857 ;;		None
  1858 ;; Auto vars:     Size  Location     Type
  1859 ;;		None
  1860 ;; Return value:  Size  Location     Type
  1861 ;;                  1    wreg      void 
  1862 ;; Registers used:
  1863 ;;		wreg
  1864 ;; Tracked objects:
  1865 ;;		On entry : 0/0
  1866 ;;		On exit  : 0/0
  1867 ;;		Unchanged: 0/0
  1868 ;; Data sizes:     COMMON   BANK0   BANK1   BANK2   BANK3   BANK4
  1869 ;;      Params:         0       0       0       0       0       0
  1870 ;;      Locals:         0       0       0       0       0       0
  1871 ;;      Temps:          0       0       0       0       0       0
  1872 ;;      Totals:         0       0       0       0       0       0
  1873 ;;Total ram usage:        0 bytes
  1874 ;; Hardware stack levels used:    1
  1875 ;; Hardware stack levels required when called:    5
  1876 ;; This function calls:
  1877 ;;		Nothing
  1878 ;; This function is called by:
  1879 ;;		_SYSTEM_Initialize
  1880 ;; This function uses a non-reentrant model
  1881 ;;
  1882                           
  1883                           
  1884                           ;psect for function _WDT_Initialize
  1885  02CC                     _WDT_Initialize:	
  1886  02CC                     l1845:	
  1887                           ;incstack = 0
  1888                           ; Regs used in _WDT_Initialize: [wreg]
  1889                           
  1890                           
  1891                           ;mcc_generated_files/mcc.c: 73:     WDTCON = 0x16;
  1892  02CC  3016               	movlw	22
  1893  02CD  0021               	movlb	1	; select bank1
  1894  02CE  0097               	movwf	23	;volatile
  1895  02CF                     l393:	
  1896  02CF  0008               	return
  1897  02D0                     __end_of_WDT_Initialize:	
  1898                           
  1899                           	psect	text4
  1900  01A0                     __ptext4:	
  1901 ;; *************** function _TMR1_Initialize *****************
  1902 ;; Defined at:
  1903 ;;		line 64 in file "mcc_generated_files/tmr1.c"
  1904 ;; Parameters:    Size  Location     Type
  1905 ;;		None
  1906 ;; Auto vars:     Size  Location     Type
  1907 ;;		None
  1908 ;; Return value:  Size  Location     Type
  1909 ;;                  1    wreg      void 
  1910 ;; Registers used:
  1911 ;;		wreg, status,2, status,0, pclath, cstack
  1912 ;; Tracked objects:
  1913 ;;		On entry : 0/0
  1914 ;;		On exit  : 0/0
  1915 ;;		Unchanged: 0/0
  1916 ;; Data sizes:     COMMON   BANK0   BANK1   BANK2   BANK3   BANK4
  1917 ;;      Params:         0       0       0       0       0       0
  1918 ;;      Locals:         0       0       0       0       0       0
  1919 ;;      Temps:          0       0       0       0       0       0
  1920 ;;      Totals:         0       0       0       0       0       0
  1921 ;;Total ram usage:        0 bytes
  1922 ;; Hardware stack levels used:    1
  1923 ;; Hardware stack levels required when called:    6
  1924 ;; This function calls:
  1925 ;;		_TMR1_SetInterruptHandler
  1926 ;; This function is called by:
  1927 ;;		_SYSTEM_Initialize
  1928 ;; This function uses a non-reentrant model
  1929 ;;
  1930                           
  1931                           
  1932                           ;psect for function _TMR1_Initialize
  1933  01A0                     _TMR1_Initialize:	
  1934  01A0                     l1765:	
  1935                           ;incstack = 0
  1936                           ; Regs used in _TMR1_Initialize: [wreg+status,2+status,0+pclath+cstack]
  1937                           
  1938                           
  1939                           ;mcc_generated_files/tmr1.c: 69:     T1GCON = 0x00;
  1940  01A0  0020               	movlb	0	; select bank0
  1941  01A1  0199               	clrf	25	;volatile
  1942  01A2                     l1767:	
  1943                           
  1944                           ;mcc_generated_files/tmr1.c: 72:     TMR1H = 0xFF;
  1945  01A2  30FF               	movlw	255
  1946  01A3  0097               	movwf	23	;volatile
  1947  01A4                     l1769:	
  1948                           
  1949                           ;mcc_generated_files/tmr1.c: 75:     TMR1L = 0xCE;
  1950  01A4  30CE               	movlw	206
  1951  01A5  0096               	movwf	22	;volatile
  1952  01A6                     l1771:	
  1953                           
  1954                           ;mcc_generated_files/tmr1.c: 78:     PIR1bits.TMR1IF = 0;
  1955  01A6  1011               	bcf	17,0	;volatile
  1956  01A7                     l1773:	
  1957                           
  1958                           ;mcc_generated_files/tmr1.c: 81:     timer1ReloadVal=(uint16_t)((TMR1H << 8) | TMR1L);
  1959  01A7  0817               	movf	23,w	;volatile
  1960  01A8  00B8               	movwf	_timer1ReloadVal+1	;volatile
  1961  01A9  0816               	movf	22,w	;volatile
  1962  01AA  00B7               	movwf	_timer1ReloadVal	;volatile
  1963  01AB                     l1775:	
  1964                           
  1965                           ;mcc_generated_files/tmr1.c: 84:     PIE1bits.TMR1IE = 1;
  1966  01AB  0021               	movlb	1	; select bank1
  1967  01AC  1411               	bsf	17,0	;volatile
  1968  01AD                     l1777:	
  1969                           
  1970                           ;mcc_generated_files/tmr1.c: 87:     TMR1_SetInterruptHandler(TMR1_DefaultInterruptHandl
      +                          er);
  1971  01AD  30E7               	movlw	low _TMR1_DefaultInterruptHandler
  1972  01AE  0020               	movlb	0	; select bank0
  1973  01AF  00B9               	movwf	TMR1_SetInterruptHandler@InterruptHandler
  1974  01B0  3002               	movlw	high _TMR1_DefaultInterruptHandler
  1975  01B1  00BA               	movwf	TMR1_SetInterruptHandler@InterruptHandler+1
  1976  01B2  3182  227D  3181   	fcall	_TMR1_SetInterruptHandler
  1977  01B5                     l1779:	
  1978                           
  1979                           ;mcc_generated_files/tmr1.c: 90:     T1CON = 0x31;
  1980  01B5  3031               	movlw	49
  1981  01B6  0020               	movlb	0	; select bank0
  1982  01B7  0098               	movwf	24	;volatile
  1983  01B8                     l27:	
  1984  01B8  0008               	return
  1985  01B9                     __end_of_TMR1_Initialize:	
  1986                           
  1987                           	psect	text5
  1988  027D                     __ptext5:	
  1989 ;; *************** function _TMR1_SetInterruptHandler *****************
  1990 ;; Defined at:
  1991 ;;		line 171 in file "mcc_generated_files/tmr1.c"
  1992 ;; Parameters:    Size  Location     Type
  1993 ;;  InterruptHan    2    0[BANK0 ] PTR FTN()void 
  1994 ;;		 -> Timer_ISR(1), TMR1_DefaultInterruptHandler(1), 
  1995 ;; Auto vars:     Size  Location     Type
  1996 ;;		None
  1997 ;; Return value:  Size  Location     Type
  1998 ;;                  1    wreg      void 
  1999 ;; Registers used:
  2000 ;;		wreg
  2001 ;; Tracked objects:
  2002 ;;		On entry : 0/0
  2003 ;;		On exit  : 0/0
  2004 ;;		Unchanged: 0/0
  2005 ;; Data sizes:     COMMON   BANK0   BANK1   BANK2   BANK3   BANK4
  2006 ;;      Params:         0       2       0       0       0       0
  2007 ;;      Locals:         0       0       0       0       0       0
  2008 ;;      Temps:          0       0       0       0       0       0
  2009 ;;      Totals:         0       2       0       0       0       0
  2010 ;;Total ram usage:        2 bytes
  2011 ;; Hardware stack levels used:    1
  2012 ;; Hardware stack levels required when called:    5
  2013 ;; This function calls:
  2014 ;;		Nothing
  2015 ;; This function is called by:
  2016 ;;		_TMR1_Initialize
  2017 ;;		_main
  2018 ;; This function uses a non-reentrant model
  2019 ;;
  2020                           
  2021                           
  2022                           ;psect for function _TMR1_SetInterruptHandler
  2023  027D                     _TMR1_SetInterruptHandler:	
  2024  027D                     l1763:	
  2025                           ;incstack = 0
  2026                           ; Regs used in _TMR1_SetInterruptHandler: [wreg]
  2027                           
  2028                           
  2029                           ;mcc_generated_files/tmr1.c: 172:     TMR1_InterruptHandler = InterruptHandler;
  2030  027D  0020               	movlb	0	; select bank0
  2031  027E  083A               	movf	TMR1_SetInterruptHandler@InterruptHandler+1,w
  2032  027F  00B6               	movwf	_TMR1_InterruptHandler+1
  2033  0280  0839               	movf	TMR1_SetInterruptHandler@InterruptHandler,w
  2034  0281  00B5               	movwf	_TMR1_InterruptHandler
  2035  0282                     l57:	
  2036  0282  0008               	return
  2037  0283                     __end_of_TMR1_SetInterruptHandler:	
  2038                           
  2039                           	psect	text6
  2040  01CF                     __ptext6:	
  2041 ;; *************** function _PIN_MANAGER_Initialize *****************
  2042 ;; Defined at:
  2043 ;;		line 55 in file "mcc_generated_files/pin_manager.c"
  2044 ;; Parameters:    Size  Location     Type
  2045 ;;		None
  2046 ;; Auto vars:     Size  Location     Type
  2047 ;;		None
  2048 ;; Return value:  Size  Location     Type
  2049 ;;                  1    wreg      void 
  2050 ;; Registers used:
  2051 ;;		wreg, status,2
  2052 ;; Tracked objects:
  2053 ;;		On entry : 0/0
  2054 ;;		On exit  : 0/0
  2055 ;;		Unchanged: 0/0
  2056 ;; Data sizes:     COMMON   BANK0   BANK1   BANK2   BANK3   BANK4
  2057 ;;      Params:         0       0       0       0       0       0
  2058 ;;      Locals:         0       0       0       0       0       0
  2059 ;;      Temps:          0       0       0       0       0       0
  2060 ;;      Totals:         0       0       0       0       0       0
  2061 ;;Total ram usage:        0 bytes
  2062 ;; Hardware stack levels used:    1
  2063 ;; Hardware stack levels required when called:    5
  2064 ;; This function calls:
  2065 ;;		Nothing
  2066 ;; This function is called by:
  2067 ;;		_SYSTEM_Initialize
  2068 ;; This function uses a non-reentrant model
  2069 ;;
  2070                           
  2071                           
  2072                           ;psect for function _PIN_MANAGER_Initialize
  2073  01CF                     _PIN_MANAGER_Initialize:	
  2074  01CF                     l1819:	
  2075                           ;incstack = 0
  2076                           ; Regs used in _PIN_MANAGER_Initialize: [wreg+status,2]
  2077                           
  2078                           
  2079                           ;mcc_generated_files/pin_manager.c: 60:     LATA = 0x00;
  2080  01CF  0022               	movlb	2	; select bank2
  2081  01D0  018C               	clrf	12	;volatile
  2082                           
  2083                           ;mcc_generated_files/pin_manager.c: 61:     LATB = 0x00;
  2084  01D1  018D               	clrf	13	;volatile
  2085  01D2                     l1821:	
  2086                           
  2087                           ;mcc_generated_files/pin_manager.c: 66:     TRISA = 0x20;
  2088  01D2  3020               	movlw	32
  2089  01D3  0021               	movlb	1	; select bank1
  2090  01D4  008C               	movwf	12	;volatile
  2091  01D5                     l1823:	
  2092                           
  2093                           ;mcc_generated_files/pin_manager.c: 67:     TRISB = 0xDA;
  2094  01D5  30DA               	movlw	218
  2095  01D6  008D               	movwf	13	;volatile
  2096  01D7                     l1825:	
  2097                           
  2098                           ;mcc_generated_files/pin_manager.c: 72:     ANSELB = 0xC8;
  2099  01D7  30C8               	movlw	200
  2100  01D8  0023               	movlb	3	; select bank3
  2101  01D9  008D               	movwf	13	;volatile
  2102  01DA                     l1827:	
  2103                           
  2104                           ;mcc_generated_files/pin_manager.c: 73:     ANSELA = 0x00;
  2105  01DA  018C               	clrf	12	;volatile
  2106  01DB                     l1829:	
  2107                           
  2108                           ;mcc_generated_files/pin_manager.c: 78:     WPUB = 0x00;
  2109  01DB  0024               	movlb	4	; select bank4
  2110  01DC  018D               	clrf	13	;volatile
  2111  01DD                     l1831:	
  2112                           
  2113                           ;mcc_generated_files/pin_manager.c: 79:     WPUA = 0x00;
  2114  01DD  018C               	clrf	12	;volatile
  2115  01DE                     l1833:	
  2116                           
  2117                           ;mcc_generated_files/pin_manager.c: 80:     OPTION_REGbits.nWPUEN = 1;
  2118  01DE  0021               	movlb	1	; select bank1
  2119  01DF  1795               	bsf	21,7	;volatile
  2120  01E0                     l1835:	
  2121                           
  2122                           ;mcc_generated_files/pin_manager.c: 86:     APFCON0 = 0x00;
  2123  01E0  0022               	movlb	2	; select bank2
  2124  01E1  019D               	clrf	29	;volatile
  2125  01E2                     l1837:	
  2126                           
  2127                           ;mcc_generated_files/pin_manager.c: 87:     APFCON1 = 0x00;
  2128  01E2  019E               	clrf	30	;volatile
  2129  01E3                     l418:	
  2130  01E3  0008               	return
  2131  01E4                     __end_of_PIN_MANAGER_Initialize:	
  2132                           
  2133                           	psect	text7
  2134  0262                     __ptext7:	
  2135 ;; *************** function _OSCILLATOR_Initialize *****************
  2136 ;; Defined at:
  2137 ;;		line 60 in file "mcc_generated_files/mcc.c"
  2138 ;; Parameters:    Size  Location     Type
  2139 ;;		None
  2140 ;; Auto vars:     Size  Location     Type
  2141 ;;		None
  2142 ;; Return value:  Size  Location     Type
  2143 ;;                  1    wreg      void 
  2144 ;; Registers used:
  2145 ;;		wreg, status,2
  2146 ;; Tracked objects:
  2147 ;;		On entry : 0/0
  2148 ;;		On exit  : 0/0
  2149 ;;		Unchanged: 0/0
  2150 ;; Data sizes:     COMMON   BANK0   BANK1   BANK2   BANK3   BANK4
  2151 ;;      Params:         0       0       0       0       0       0
  2152 ;;      Locals:         0       0       0       0       0       0
  2153 ;;      Temps:          0       0       0       0       0       0
  2154 ;;      Totals:         0       0       0       0       0       0
  2155 ;;Total ram usage:        0 bytes
  2156 ;; Hardware stack levels used:    1
  2157 ;; Hardware stack levels required when called:    5
  2158 ;; This function calls:
  2159 ;;		Nothing
  2160 ;; This function is called by:
  2161 ;;		_SYSTEM_Initialize
  2162 ;; This function uses a non-reentrant model
  2163 ;;
  2164                           
  2165                           
  2166                           ;psect for function _OSCILLATOR_Initialize
  2167  0262                     _OSCILLATOR_Initialize:	
  2168  0262                     l1839:	
  2169                           ;incstack = 0
  2170                           ; Regs used in _OSCILLATOR_Initialize: [wreg+status,2]
  2171                           
  2172                           
  2173                           ;mcc_generated_files/mcc.c: 63:     OSCCON = 0x78;
  2174  0262  3078               	movlw	120
  2175  0263  0021               	movlb	1	; select bank1
  2176  0264  0099               	movwf	25	;volatile
  2177  0265                     l1841:	
  2178                           
  2179                           ;mcc_generated_files/mcc.c: 65:     OSCTUNE = 0x00;
  2180  0265  0198               	clrf	24	;volatile
  2181  0266                     l1843:	
  2182                           
  2183                           ;mcc_generated_files/mcc.c: 67:     BORCON = 0x00;
  2184  0266  0022               	movlb	2	; select bank2
  2185  0267  0196               	clrf	22	;volatile
  2186  0268                     l390:	
  2187  0268  0008               	return
  2188  0269                     __end_of_OSCILLATOR_Initialize:	
  2189                           
  2190                           	psect	text8
  2191  0256                     __ptext8:	
  2192 ;; *************** function _I2C1_Initialize *****************
  2193 ;; Defined at:
  2194 ;;		line 104 in file "mcc_generated_files/i2c1_slave.c"
  2195 ;; Parameters:    Size  Location     Type
  2196 ;;		None
  2197 ;; Auto vars:     Size  Location     Type
  2198 ;;		None
  2199 ;; Return value:  Size  Location     Type
  2200 ;;                  1    wreg      void 
  2201 ;; Registers used:
  2202 ;;		wreg, status,2, status,0
  2203 ;; Tracked objects:
  2204 ;;		On entry : 0/0
  2205 ;;		On exit  : 0/0
  2206 ;;		Unchanged: 0/0
  2207 ;; Data sizes:     COMMON   BANK0   BANK1   BANK2   BANK3   BANK4
  2208 ;;      Params:         0       0       0       0       0       0
  2209 ;;      Locals:         0       0       0       0       0       0
  2210 ;;      Temps:          0       1       0       0       0       0
  2211 ;;      Totals:         0       1       0       0       0       0
  2212 ;;Total ram usage:        1 bytes
  2213 ;; Hardware stack levels used:    1
  2214 ;; Hardware stack levels required when called:    5
  2215 ;; This function calls:
  2216 ;;		Nothing
  2217 ;; This function is called by:
  2218 ;;		_SYSTEM_Initialize
  2219 ;;		_I2C1_Enable
  2220 ;; This function uses a non-reentrant model
  2221 ;;
  2222                           
  2223                           
  2224                           ;psect for function _I2C1_Initialize
  2225  0256                     _I2C1_Initialize:	
  2226  0256                     l1781:	
  2227                           ;incstack = 0
  2228                           ; Regs used in _I2C1_Initialize: [wreg+status,2+status,0]
  2229                           
  2230                           
  2231                           ;mcc_generated_files/i2c1_slave.c: 106:     SSP1STAT = 0x40;
  2232  0256  3040               	movlw	64
  2233  0257  0024               	movlb	4	; select bank4
  2234  0258  0094               	movwf	20	;volatile
  2235  0259                     l1783:	
  2236                           
  2237                           ;mcc_generated_files/i2c1_slave.c: 107:     SSP1CON1 |= 0x16;
  2238  0259  3016               	movlw	22
  2239  025A  0020               	movlb	0	; select bank0
  2240  025B  00B9               	movwf	??_I2C1_Initialize
  2241  025C  0839               	movf	??_I2C1_Initialize,w
  2242  025D  0024               	movlb	4	; select bank4
  2243  025E  0495               	iorwf	21,f	;volatile
  2244  025F                     l1785:	
  2245                           
  2246                           ;mcc_generated_files/i2c1_slave.c: 108:     SSP1CON2 = 0x00;
  2247  025F  0196               	clrf	22	;volatile
  2248  0260                     l1787:	
  2249                           
  2250                           ;mcc_generated_files/i2c1_slave.c: 109:     SSP1CON1bits.SSPEN = 0;
  2251  0260  1295               	bcf	21,5	;volatile
  2252  0261                     l171:	
  2253  0261  0008               	return
  2254  0262                     __end_of_I2C1_Initialize:	
  2255                           
  2256                           	psect	text9
  2257  013B                     __ptext9:	
  2258 ;; *************** function _I2C1_Open *****************
  2259 ;; Defined at:
  2260 ;;		line 112 in file "mcc_generated_files/i2c1_slave.c"
  2261 ;; Parameters:    Size  Location     Type
  2262 ;;		None
  2263 ;; Auto vars:     Size  Location     Type
  2264 ;;		None
  2265 ;; Return value:  Size  Location     Type
  2266 ;;                  1    wreg      void 
  2267 ;; Registers used:
  2268 ;;		wreg, status,2, status,0, pclath, cstack
  2269 ;; Tracked objects:
  2270 ;;		On entry : 0/0
  2271 ;;		On exit  : 0/0
  2272 ;;		Unchanged: 0/0
  2273 ;; Data sizes:     COMMON   BANK0   BANK1   BANK2   BANK3   BANK4
  2274 ;;      Params:         0       0       0       0       0       0
  2275 ;;      Locals:         0       0       0       0       0       0
  2276 ;;      Temps:          0       0       0       0       0       0
  2277 ;;      Totals:         0       0       0       0       0       0
  2278 ;;Total ram usage:        0 bytes
  2279 ;; Hardware stack levels used:    1
  2280 ;; Hardware stack levels required when called:    6
  2281 ;; This function calls:
  2282 ;;		_I2C1_SlaveEnableIrq
  2283 ;;		_I2C1_SlaveOpen
  2284 ;;		_I2C1_SlaveSetAddrIntHandler
  2285 ;;		_I2C1_SlaveSetBusColIntHandler
  2286 ;;		_I2C1_SlaveSetIsrHandler
  2287 ;;		_I2C1_SlaveSetReadIntHandler
  2288 ;;		_I2C1_SlaveSetSlaveAddr
  2289 ;;		_I2C1_SlaveSetSlaveMask
  2290 ;;		_I2C1_SlaveSetWrColIntHandler
  2291 ;;		_I2C1_SlaveSetWriteIntHandler
  2292 ;; This function is called by:
  2293 ;;		_main
  2294 ;; This function uses a non-reentrant model
  2295 ;;
  2296                           
  2297                           
  2298                           ;psect for function _I2C1_Open
  2299  013B                     _I2C1_Open:	
  2300  013B                     l1849:	
  2301                           ;incstack = 0
  2302                           ; Regs used in _I2C1_Open: [wreg+status,2+status,0+pclath+cstack]
  2303                           
  2304                           
  2305                           ;mcc_generated_files/i2c1_slave.c: 114:     I2C1_SlaveOpen();
  2306  013B  3182  2205  3181   	fcall	_I2C1_SlaveOpen
  2307                           
  2308                           ;mcc_generated_files/i2c1_slave.c: 115:     I2C1_SlaveSetSlaveAddr(10 << 1);
  2309  013E  3014               	movlw	20
  2310  013F  3182  2295  3181   	fcall	_I2C1_SlaveSetSlaveAddr
  2311                           
  2312                           ;mcc_generated_files/i2c1_slave.c: 116:     I2C1_SlaveSetSlaveMask(10);
  2313  0142  300A               	movlw	10
  2314  0143  3182  228F  3181   	fcall	_I2C1_SlaveSetSlaveMask
  2315                           
  2316                           ;mcc_generated_files/i2c1_slave.c: 117:     I2C1_SlaveSetIsrHandler(I2C1_Isr);
  2317  0146  30E4               	movlw	low _I2C1_Isr
  2318  0147  0020               	movlb	0	; select bank0
  2319  0148  00B9               	movwf	I2C1_SlaveSetIsrHandler@handler
  2320  0149  3000               	movlw	high _I2C1_Isr
  2321  014A  00BA               	movwf	I2C1_SlaveSetIsrHandler@handler+1
  2322  014B  3182  22A1  3181   	fcall	_I2C1_SlaveSetIsrHandler
  2323                           
  2324                           ;mcc_generated_files/i2c1_slave.c: 118:     I2C1_SlaveSetBusColIntHandler(I2C1_SlaveDefB
      +                          usColInterruptHandler);
  2325  014E  3000               	movlw	0
  2326  014F  0020               	movlb	0	; select bank0
  2327  0150  00B9               	movwf	I2C1_SlaveSetBusColIntHandler@handler
  2328  0151  3000               	movlw	0
  2329  0152  00BA               	movwf	I2C1_SlaveSetBusColIntHandler@handler+1
  2330  0153  3182  22A7  3181   	fcall	_I2C1_SlaveSetBusColIntHandler
  2331                           
  2332                           ;mcc_generated_files/i2c1_slave.c: 119:     I2C1_SlaveSetWriteIntHandler(I2C1_SlaveDefWr
      +                          InterruptHandler);
  2333  0156  30B3               	movlw	low _I2C1_SlaveDefWrInterruptHandler
  2334  0157  0020               	movlb	0	; select bank0
  2335  0158  00B9               	movwf	I2C1_SlaveSetWriteIntHandler@handler
  2336  0159  3002               	movlw	high _I2C1_SlaveDefWrInterruptHandler
  2337  015A  00BA               	movwf	I2C1_SlaveSetWriteIntHandler@handler+1
  2338  015B  3182  2283  3181   	fcall	_I2C1_SlaveSetWriteIntHandler
  2339                           
  2340                           ;mcc_generated_files/i2c1_slave.c: 120:     I2C1_SlaveSetReadIntHandler(I2C1_SlaveDefRdI
      +                          nterruptHandler);
  2341  015E  3069               	movlw	low _I2C1_SlaveDefRdInterruptHandler
  2342  015F  0020               	movlb	0	; select bank0
  2343  0160  00B9               	movwf	I2C1_SlaveSetReadIntHandler@handler
  2344  0161  3002               	movlw	high _I2C1_SlaveDefRdInterruptHandler
  2345  0162  00BA               	movwf	I2C1_SlaveSetReadIntHandler@handler+1
  2346  0163  3182  229B  3181   	fcall	_I2C1_SlaveSetReadIntHandler
  2347                           
  2348                           ;mcc_generated_files/i2c1_slave.c: 121:     I2C1_SlaveSetAddrIntHandler(I2C1_SlaveDefAdd
      +                          rInterruptHandler);
  2349  0166  3070               	movlw	low _I2C1_SlaveDefAddrInterruptHandler
  2350  0167  0020               	movlb	0	; select bank0
  2351  0168  00B9               	movwf	I2C1_SlaveSetAddrIntHandler@handler
  2352  0169  3002               	movlw	high _I2C1_SlaveDefAddrInterruptHandler
  2353  016A  00BA               	movwf	I2C1_SlaveSetAddrIntHandler@handler+1
  2354  016B  3182  22AD  3181   	fcall	_I2C1_SlaveSetAddrIntHandler
  2355                           
  2356                           ;mcc_generated_files/i2c1_slave.c: 122:     I2C1_SlaveSetWrColIntHandler(I2C1_SlaveDefWr
      +                          ColInterruptHandler);
  2357  016E  30E8               	movlw	low _I2C1_SlaveDefWrColInterruptHandler
  2358  016F  0020               	movlb	0	; select bank0
  2359  0170  00B9               	movwf	I2C1_SlaveSetWrColIntHandler@handler
  2360  0171  3002               	movlw	high _I2C1_SlaveDefWrColInterruptHandler
  2361  0172  00BA               	movwf	I2C1_SlaveSetWrColIntHandler@handler+1
  2362  0173  3182  2289  3181   	fcall	_I2C1_SlaveSetWrColIntHandler
  2363  0176                     l1851:	
  2364                           
  2365                           ;mcc_generated_files/i2c1_slave.c: 123:     I2C1_SlaveEnableIrq();
  2366  0176  3182  22D3  3181   	fcall	_I2C1_SlaveEnableIrq
  2367  0179                     l174:	
  2368  0179  0008               	return
  2369  017A                     __end_of_I2C1_Open:	
  2370                           
  2371                           	psect	text10
  2372  0283                     __ptext10:	
  2373 ;; *************** function _I2C1_SlaveSetWriteIntHandler *****************
  2374 ;; Defined at:
  2375 ;;		line 232 in file "mcc_generated_files/i2c1_slave.c"
  2376 ;; Parameters:    Size  Location     Type
  2377 ;;  handler         2    0[BANK0 ] PTR FTN()void 
  2378 ;;		 -> I2C1_SlaveDefWrInterruptHandler(1), 
  2379 ;; Auto vars:     Size  Location     Type
  2380 ;;		None
  2381 ;; Return value:  Size  Location     Type
  2382 ;;                  1    wreg      void 
  2383 ;; Registers used:
  2384 ;;		wreg
  2385 ;; Tracked objects:
  2386 ;;		On entry : 0/0
  2387 ;;		On exit  : 0/0
  2388 ;;		Unchanged: 0/0
  2389 ;; Data sizes:     COMMON   BANK0   BANK1   BANK2   BANK3   BANK4
  2390 ;;      Params:         0       2       0       0       0       0
  2391 ;;      Locals:         0       0       0       0       0       0
  2392 ;;      Temps:          0       0       0       0       0       0
  2393 ;;      Totals:         0       2       0       0       0       0
  2394 ;;Total ram usage:        2 bytes
  2395 ;; Hardware stack levels used:    1
  2396 ;; Hardware stack levels required when called:    5
  2397 ;; This function calls:
  2398 ;;		Nothing
  2399 ;; This function is called by:
  2400 ;;		_I2C1_Open
  2401 ;; This function uses a non-reentrant model
  2402 ;;
  2403                           
  2404                           
  2405                           ;psect for function _I2C1_SlaveSetWriteIntHandler
  2406  0283                     _I2C1_SlaveSetWriteIntHandler:	
  2407  0283                     l1809:	
  2408                           ;incstack = 0
  2409                           ; Regs used in _I2C1_SlaveSetWriteIntHandler: [wreg]
  2410                           
  2411                           
  2412                           ;mcc_generated_files/i2c1_slave.c: 233:     I2C1_SlaveWrInterruptHandler = handler;
  2413  0283  0020               	movlb	0	; select bank0
  2414  0284  083A               	movf	I2C1_SlaveSetWriteIntHandler@handler+1,w
  2415  0285  00AD               	movwf	_I2C1_SlaveWrInterruptHandler+1
  2416  0286  0839               	movf	I2C1_SlaveSetWriteIntHandler@handler,w
  2417  0287  00AC               	movwf	_I2C1_SlaveWrInterruptHandler
  2418  0288                     l222:	
  2419  0288  0008               	return
  2420  0289                     __end_of_I2C1_SlaveSetWriteIntHandler:	
  2421                           
  2422                           	psect	text11
  2423  0289                     __ptext11:	
  2424 ;; *************** function _I2C1_SlaveSetWrColIntHandler *****************
  2425 ;; Defined at:
  2426 ;;		line 265 in file "mcc_generated_files/i2c1_slave.c"
  2427 ;; Parameters:    Size  Location     Type
  2428 ;;  handler         2    0[BANK0 ] PTR FTN()void 
  2429 ;;		 -> I2C1_SlaveDefWrColInterruptHandler(1), 
  2430 ;; Auto vars:     Size  Location     Type
  2431 ;;		None
  2432 ;; Return value:  Size  Location     Type
  2433 ;;                  1    wreg      void 
  2434 ;; Registers used:
  2435 ;;		wreg
  2436 ;; Tracked objects:
  2437 ;;		On entry : 0/0
  2438 ;;		On exit  : 0/0
  2439 ;;		Unchanged: 0/0
  2440 ;; Data sizes:     COMMON   BANK0   BANK1   BANK2   BANK3   BANK4
  2441 ;;      Params:         0       2       0       0       0       0
  2442 ;;      Locals:         0       0       0       0       0       0
  2443 ;;      Temps:          0       0       0       0       0       0
  2444 ;;      Totals:         0       2       0       0       0       0
  2445 ;;Total ram usage:        2 bytes
  2446 ;; Hardware stack levels used:    1
  2447 ;; Hardware stack levels required when called:    5
  2448 ;; This function calls:
  2449 ;;		Nothing
  2450 ;; This function is called by:
  2451 ;;		_I2C1_Open
  2452 ;; This function uses a non-reentrant model
  2453 ;;
  2454                           
  2455                           
  2456                           ;psect for function _I2C1_SlaveSetWrColIntHandler
  2457  0289                     _I2C1_SlaveSetWrColIntHandler:	
  2458  0289                     l1815:	
  2459                           ;incstack = 0
  2460                           ; Regs used in _I2C1_SlaveSetWrColIntHandler: [wreg]
  2461                           
  2462                           
  2463                           ;mcc_generated_files/i2c1_slave.c: 266:     I2C1_SlaveWrColInterruptHandler = handler;
  2464  0289  0020               	movlb	0	; select bank0
  2465  028A  083A               	movf	I2C1_SlaveSetWrColIntHandler@handler+1,w
  2466  028B  00A7               	movwf	_I2C1_SlaveWrColInterruptHandler+1
  2467  028C  0839               	movf	I2C1_SlaveSetWrColIntHandler@handler,w
  2468  028D  00A6               	movwf	_I2C1_SlaveWrColInterruptHandler
  2469  028E                     l242:	
  2470  028E  0008               	return
  2471  028F                     __end_of_I2C1_SlaveSetWrColIntHandler:	
  2472                           
  2473                           	psect	text12
  2474  028F                     __ptext12:	
  2475 ;; *************** function _I2C1_SlaveSetSlaveMask *****************
  2476 ;; Defined at:
  2477 ;;		line 322 in file "mcc_generated_files/i2c1_slave.c"
  2478 ;; Parameters:    Size  Location     Type
  2479 ;;  maskAddr        1    wreg     unsigned char 
  2480 ;; Auto vars:     Size  Location     Type
  2481 ;;  maskAddr        1    0[BANK0 ] unsigned char 
  2482 ;; Return value:  Size  Location     Type
  2483 ;;                  1    wreg      void 
  2484 ;; Registers used:
  2485 ;;		wreg
  2486 ;; Tracked objects:
  2487 ;;		On entry : 0/0
  2488 ;;		On exit  : 0/0
  2489 ;;		Unchanged: 0/0
  2490 ;; Data sizes:     COMMON   BANK0   BANK1   BANK2   BANK3   BANK4
  2491 ;;      Params:         0       0       0       0       0       0
  2492 ;;      Locals:         0       1       0       0       0       0
  2493 ;;      Temps:          0       0       0       0       0       0
  2494 ;;      Totals:         0       1       0       0       0       0
  2495 ;;Total ram usage:        1 bytes
  2496 ;; Hardware stack levels used:    1
  2497 ;; Hardware stack levels required when called:    5
  2498 ;; This function calls:
  2499 ;;		Nothing
  2500 ;; This function is called by:
  2501 ;;		_I2C1_Open
  2502 ;; This function uses a non-reentrant model
  2503 ;;
  2504                           
  2505                           
  2506                           ;psect for function _I2C1_SlaveSetSlaveMask
  2507  028F                     _I2C1_SlaveSetSlaveMask:	
  2508                           
  2509                           ;incstack = 0
  2510                           ; Regs used in _I2C1_SlaveSetSlaveMask: [wreg]
  2511                           ;I2C1_SlaveSetSlaveMask@maskAddr stored from wreg
  2512  028F  0020               	movlb	0	; select bank0
  2513  0290  00B9               	movwf	I2C1_SlaveSetSlaveMask@maskAddr
  2514  0291                     l1803:	
  2515                           
  2516                           ;mcc_generated_files/i2c1_slave.c: 322: static __attribute__((inline)) void I2C1_SlaveSe
      +                          tSlaveMask(uint8_t maskAddr);mcc_generated_files/i2c1_slave.c: 323: {;mcc_generated_file
      +                          s/i2c1_slave.c: 324:     SSP1MSK = maskAddr;
  2517  0291  0839               	movf	I2C1_SlaveSetSlaveMask@maskAddr,w
  2518  0292  0024               	movlb	4	; select bank4
  2519  0293  0093               	movwf	19	;volatile
  2520  0294                     l272:	
  2521  0294  0008               	return
  2522  0295                     __end_of_I2C1_SlaveSetSlaveMask:	
  2523                           
  2524                           	psect	text13
  2525  0295                     __ptext13:	
  2526 ;; *************** function _I2C1_SlaveSetSlaveAddr *****************
  2527 ;; Defined at:
  2528 ;;		line 317 in file "mcc_generated_files/i2c1_slave.c"
  2529 ;; Parameters:    Size  Location     Type
  2530 ;;  slaveAddr       1    wreg     unsigned char 
  2531 ;; Auto vars:     Size  Location     Type
  2532 ;;  slaveAddr       1    0[BANK0 ] unsigned char 
  2533 ;; Return value:  Size  Location     Type
  2534 ;;                  1    wreg      void 
  2535 ;; Registers used:
  2536 ;;		wreg
  2537 ;; Tracked objects:
  2538 ;;		On entry : 0/0
  2539 ;;		On exit  : 0/0
  2540 ;;		Unchanged: 0/0
  2541 ;; Data sizes:     COMMON   BANK0   BANK1   BANK2   BANK3   BANK4
  2542 ;;      Params:         0       0       0       0       0       0
  2543 ;;      Locals:         0       1       0       0       0       0
  2544 ;;      Temps:          0       0       0       0       0       0
  2545 ;;      Totals:         0       1       0       0       0       0
  2546 ;;Total ram usage:        1 bytes
  2547 ;; Hardware stack levels used:    1
  2548 ;; Hardware stack levels required when called:    5
  2549 ;; This function calls:
  2550 ;;		Nothing
  2551 ;; This function is called by:
  2552 ;;		_I2C1_Open
  2553 ;; This function uses a non-reentrant model
  2554 ;;
  2555                           
  2556                           
  2557                           ;psect for function _I2C1_SlaveSetSlaveAddr
  2558  0295                     _I2C1_SlaveSetSlaveAddr:	
  2559                           
  2560                           ;incstack = 0
  2561                           ; Regs used in _I2C1_SlaveSetSlaveAddr: [wreg]
  2562                           ;I2C1_SlaveSetSlaveAddr@slaveAddr stored from wreg
  2563  0295  0020               	movlb	0	; select bank0
  2564  0296  00B9               	movwf	I2C1_SlaveSetSlaveAddr@slaveAddr
  2565  0297                     l1801:	
  2566                           
  2567                           ;mcc_generated_files/i2c1_slave.c: 317: static __attribute__((inline)) void I2C1_SlaveSe
      +                          tSlaveAddr(uint8_t slaveAddr);mcc_generated_files/i2c1_slave.c: 318: {;mcc_generated_fil
      +                          es/i2c1_slave.c: 319:     SSP1ADD = slaveAddr;
  2568  0297  0839               	movf	I2C1_SlaveSetSlaveAddr@slaveAddr,w
  2569  0298  0024               	movlb	4	; select bank4
  2570  0299  0092               	movwf	18	;volatile
  2571  029A                     l269:	
  2572  029A  0008               	return
  2573  029B                     __end_of_I2C1_SlaveSetSlaveAddr:	
  2574                           
  2575                           	psect	text14
  2576  029B                     __ptext14:	
  2577 ;; *************** function _I2C1_SlaveSetReadIntHandler *****************
  2578 ;; Defined at:
  2579 ;;		line 215 in file "mcc_generated_files/i2c1_slave.c"
  2580 ;; Parameters:    Size  Location     Type
  2581 ;;  handler         2    0[BANK0 ] PTR FTN()void 
  2582 ;;		 -> I2C1_ReadISR(1), I2C1_SlaveDefRdInterruptHandler(1), 
  2583 ;; Auto vars:     Size  Location     Type
  2584 ;;		None
  2585 ;; Return value:  Size  Location     Type
  2586 ;;                  1    wreg      void 
  2587 ;; Registers used:
  2588 ;;		wreg
  2589 ;; Tracked objects:
  2590 ;;		On entry : 0/0
  2591 ;;		On exit  : 0/0
  2592 ;;		Unchanged: 0/0
  2593 ;; Data sizes:     COMMON   BANK0   BANK1   BANK2   BANK3   BANK4
  2594 ;;      Params:         0       2       0       0       0       0
  2595 ;;      Locals:         0       0       0       0       0       0
  2596 ;;      Temps:          0       0       0       0       0       0
  2597 ;;      Totals:         0       2       0       0       0       0
  2598 ;;Total ram usage:        2 bytes
  2599 ;; Hardware stack levels used:    1
  2600 ;; Hardware stack levels required when called:    5
  2601 ;; This function calls:
  2602 ;;		Nothing
  2603 ;; This function is called by:
  2604 ;;		_I2C1_Open
  2605 ;;		_main
  2606 ;; This function uses a non-reentrant model
  2607 ;;
  2608                           
  2609                           
  2610                           ;psect for function _I2C1_SlaveSetReadIntHandler
  2611  029B                     _I2C1_SlaveSetReadIntHandler:	
  2612  029B                     l1811:	
  2613                           ;incstack = 0
  2614                           ; Regs used in _I2C1_SlaveSetReadIntHandler: [wreg]
  2615                           
  2616                           
  2617                           ;mcc_generated_files/i2c1_slave.c: 216:     I2C1_SlaveRdInterruptHandler = handler;
  2618  029B  0020               	movlb	0	; select bank0
  2619  029C  083A               	movf	I2C1_SlaveSetReadIntHandler@handler+1,w
  2620  029D  00AF               	movwf	_I2C1_SlaveRdInterruptHandler+1
  2621  029E  0839               	movf	I2C1_SlaveSetReadIntHandler@handler,w
  2622  029F  00AE               	movwf	_I2C1_SlaveRdInterruptHandler
  2623  02A0                     l212:	
  2624  02A0  0008               	return
  2625  02A1                     __end_of_I2C1_SlaveSetReadIntHandler:	
  2626                           
  2627                           	psect	text15
  2628  02A1                     __ptext15:	
  2629 ;; *************** function _I2C1_SlaveSetIsrHandler *****************
  2630 ;; Defined at:
  2631 ;;		line 209 in file "mcc_generated_files/i2c1_slave.c"
  2632 ;; Parameters:    Size  Location     Type
  2633 ;;  handler         2    0[BANK0 ] PTR FTN()void 
  2634 ;;		 -> I2C1_Isr(1), 
  2635 ;; Auto vars:     Size  Location     Type
  2636 ;;		None
  2637 ;; Return value:  Size  Location     Type
  2638 ;;                  1    wreg      void 
  2639 ;; Registers used:
  2640 ;;		wreg
  2641 ;; Tracked objects:
  2642 ;;		On entry : 0/0
  2643 ;;		On exit  : 0/0
  2644 ;;		Unchanged: 0/0
  2645 ;; Data sizes:     COMMON   BANK0   BANK1   BANK2   BANK3   BANK4
  2646 ;;      Params:         0       2       0       0       0       0
  2647 ;;      Locals:         0       0       0       0       0       0
  2648 ;;      Temps:          0       0       0       0       0       0
  2649 ;;      Totals:         0       2       0       0       0       0
  2650 ;;Total ram usage:        2 bytes
  2651 ;; Hardware stack levels used:    1
  2652 ;; Hardware stack levels required when called:    5
  2653 ;; This function calls:
  2654 ;;		Nothing
  2655 ;; This function is called by:
  2656 ;;		_I2C1_Open
  2657 ;; This function uses a non-reentrant model
  2658 ;;
  2659                           
  2660                           
  2661                           ;psect for function _I2C1_SlaveSetIsrHandler
  2662  02A1                     _I2C1_SlaveSetIsrHandler:	
  2663  02A1                     l1805:	
  2664                           ;incstack = 0
  2665                           ; Regs used in _I2C1_SlaveSetIsrHandler: [wreg]
  2666                           
  2667                           
  2668                           ;mcc_generated_files/i2c1_slave.c: 209: void I2C1_SlaveSetIsrHandler(interruptHandler ha
      +                          ndler);mcc_generated_files/i2c1_slave.c: 210: {;mcc_generated_files/i2c1_slave.c: 211:  
      +                             MSSP1_InterruptHandler = handler;
  2669  02A1  0020               	movlb	0	; select bank0
  2670  02A2  083A               	movf	I2C1_SlaveSetIsrHandler@handler+1,w
  2671  02A3  00B1               	movwf	_MSSP1_InterruptHandler+1
  2672  02A4  0839               	movf	I2C1_SlaveSetIsrHandler@handler,w
  2673  02A5  00B0               	movwf	_MSSP1_InterruptHandler
  2674  02A6                     l209:	
  2675  02A6  0008               	return
  2676  02A7                     __end_of_I2C1_SlaveSetIsrHandler:	
  2677                           
  2678                           	psect	text16
  2679  02A7                     __ptext16:	
  2680 ;; *************** function _I2C1_SlaveSetBusColIntHandler *****************
  2681 ;; Defined at:
  2682 ;;		line 281 in file "mcc_generated_files/i2c1_slave.c"
  2683 ;; Parameters:    Size  Location     Type
  2684 ;;  handler         2    0[BANK0 ] PTR FTN()void 
  2685 ;;		 -> I2C1_SlaveDefBusColInterruptHandler(1), 
  2686 ;; Auto vars:     Size  Location     Type
  2687 ;;		None
  2688 ;; Return value:  Size  Location     Type
  2689 ;;                  1    wreg      void 
  2690 ;; Registers used:
  2691 ;;		wreg
  2692 ;; Tracked objects:
  2693 ;;		On entry : 0/0
  2694 ;;		On exit  : 0/0
  2695 ;;		Unchanged: 0/0
  2696 ;; Data sizes:     COMMON   BANK0   BANK1   BANK2   BANK3   BANK4
  2697 ;;      Params:         0       2       0       0       0       0
  2698 ;;      Locals:         0       0       0       0       0       0
  2699 ;;      Temps:          0       0       0       0       0       0
  2700 ;;      Totals:         0       2       0       0       0       0
  2701 ;;Total ram usage:        2 bytes
  2702 ;; Hardware stack levels used:    1
  2703 ;; Hardware stack levels required when called:    5
  2704 ;; This function calls:
  2705 ;;		Nothing
  2706 ;; This function is called by:
  2707 ;;		_I2C1_Open
  2708 ;; This function uses a non-reentrant model
  2709 ;;
  2710                           
  2711                           
  2712                           ;psect for function _I2C1_SlaveSetBusColIntHandler
  2713  02A7                     _I2C1_SlaveSetBusColIntHandler:	
  2714  02A7                     l1807:	
  2715                           ;incstack = 0
  2716                           ; Regs used in _I2C1_SlaveSetBusColIntHandler: [wreg]
  2717                           
  2718                           
  2719                           ;mcc_generated_files/i2c1_slave.c: 282:     I2C1_SlaveBusColInterruptHandler = handler;
  2720  02A7  0020               	movlb	0	; select bank0
  2721  02A8  083A               	movf	I2C1_SlaveSetBusColIntHandler@handler+1,w
  2722  02A9  00A9               	movwf	_I2C1_SlaveBusColInterruptHandler+1
  2723  02AA  0839               	movf	I2C1_SlaveSetBusColIntHandler@handler,w
  2724  02AB  00A8               	movwf	_I2C1_SlaveBusColInterruptHandler
  2725  02AC                     l252:	
  2726  02AC  0008               	return
  2727  02AD                     __end_of_I2C1_SlaveSetBusColIntHandler:	
  2728                           
  2729                           	psect	text17
  2730  02AD                     __ptext17:	
  2731 ;; *************** function _I2C1_SlaveSetAddrIntHandler *****************
  2732 ;; Defined at:
  2733 ;;		line 249 in file "mcc_generated_files/i2c1_slave.c"
  2734 ;; Parameters:    Size  Location     Type
  2735 ;;  handler         2    0[BANK0 ] PTR FTN()void 
  2736 ;;		 -> I2C1_AddrISR(1), I2C1_SlaveDefAddrInterruptHandler(1), 
  2737 ;; Auto vars:     Size  Location     Type
  2738 ;;		None
  2739 ;; Return value:  Size  Location     Type
  2740 ;;                  1    wreg      void 
  2741 ;; Registers used:
  2742 ;;		wreg
  2743 ;; Tracked objects:
  2744 ;;		On entry : 0/0
  2745 ;;		On exit  : 0/0
  2746 ;;		Unchanged: 0/0
  2747 ;; Data sizes:     COMMON   BANK0   BANK1   BANK2   BANK3   BANK4
  2748 ;;      Params:         0       2       0       0       0       0
  2749 ;;      Locals:         0       0       0       0       0       0
  2750 ;;      Temps:          0       0       0       0       0       0
  2751 ;;      Totals:         0       2       0       0       0       0
  2752 ;;Total ram usage:        2 bytes
  2753 ;; Hardware stack levels used:    1
  2754 ;; Hardware stack levels required when called:    5
  2755 ;; This function calls:
  2756 ;;		Nothing
  2757 ;; This function is called by:
  2758 ;;		_I2C1_Open
  2759 ;;		_main
  2760 ;; This function uses a non-reentrant model
  2761 ;;
  2762                           
  2763                           
  2764                           ;psect for function _I2C1_SlaveSetAddrIntHandler
  2765  02AD                     _I2C1_SlaveSetAddrIntHandler:	
  2766  02AD                     l1813:	
  2767                           ;incstack = 0
  2768                           ; Regs used in _I2C1_SlaveSetAddrIntHandler: [wreg]
  2769                           
  2770                           
  2771                           ;mcc_generated_files/i2c1_slave.c: 250:     I2C1_SlaveAddrInterruptHandler = handler;
  2772  02AD  0020               	movlb	0	; select bank0
  2773  02AE  083A               	movf	I2C1_SlaveSetAddrIntHandler@handler+1,w
  2774  02AF  00AB               	movwf	_I2C1_SlaveAddrInterruptHandler+1
  2775  02B0  0839               	movf	I2C1_SlaveSetAddrIntHandler@handler,w
  2776  02B1  00AA               	movwf	_I2C1_SlaveAddrInterruptHandler
  2777  02B2                     l232:	
  2778  02B2  0008               	return
  2779  02B3                     __end_of_I2C1_SlaveSetAddrIntHandler:	
  2780                           
  2781                           	psect	text18
  2782  0205                     __ptext18:	
  2783 ;; *************** function _I2C1_SlaveOpen *****************
  2784 ;; Defined at:
  2785 ;;		line 296 in file "mcc_generated_files/i2c1_slave.c"
  2786 ;; Parameters:    Size  Location     Type
  2787 ;;		None
  2788 ;; Auto vars:     Size  Location     Type
  2789 ;;		None
  2790 ;; Return value:  Size  Location     Type
  2791 ;;                  1    wreg      _Bool 
  2792 ;; Registers used:
  2793 ;;		wreg, status,2, status,0
  2794 ;; Tracked objects:
  2795 ;;		On entry : 0/0
  2796 ;;		On exit  : 0/0
  2797 ;;		Unchanged: 0/0
  2798 ;; Data sizes:     COMMON   BANK0   BANK1   BANK2   BANK3   BANK4
  2799 ;;      Params:         0       0       0       0       0       0
  2800 ;;      Locals:         0       0       0       0       0       0
  2801 ;;      Temps:          0       1       0       0       0       0
  2802 ;;      Totals:         0       1       0       0       0       0
  2803 ;;Total ram usage:        1 bytes
  2804 ;; Hardware stack levels used:    1
  2805 ;; Hardware stack levels required when called:    5
  2806 ;; This function calls:
  2807 ;;		Nothing
  2808 ;; This function is called by:
  2809 ;;		_I2C1_Open
  2810 ;; This function uses a non-reentrant model
  2811 ;;
  2812                           
  2813                           
  2814                           ;psect for function _I2C1_SlaveOpen
  2815  0205                     _I2C1_SlaveOpen:	
  2816  0205                     l1789:	
  2817                           ;incstack = 0
  2818                           ; Regs used in _I2C1_SlaveOpen: [wreg+status,2+status,0]
  2819                           
  2820                           
  2821                           ;mcc_generated_files/i2c1_slave.c: 298:     if(!SSP1CON1bits.SSPEN)
  2822  0205  0024               	movlb	4	; select bank4
  2823  0206  1A95               	btfsc	21,5	;volatile
  2824  0207  2A09               	goto	u661
  2825  0208  2A0A               	goto	u660
  2826  0209                     u661:	
  2827  0209  2A14               	goto	l263
  2828  020A                     u660:	
  2829  020A                     l1791:	
  2830                           
  2831                           ;mcc_generated_files/i2c1_slave.c: 299:     {;mcc_generated_files/i2c1_slave.c: 300:    
      +                               SSP1STAT = 0x40;
  2832  020A  3040               	movlw	64
  2833  020B  0094               	movwf	20	;volatile
  2834  020C                     l1793:	
  2835                           
  2836                           ;mcc_generated_files/i2c1_slave.c: 301:         SSP1CON1 |= 0x16;
  2837  020C  3016               	movlw	22
  2838  020D  0020               	movlb	0	; select bank0
  2839  020E  00B9               	movwf	??_I2C1_SlaveOpen
  2840  020F  0839               	movf	??_I2C1_SlaveOpen,w
  2841  0210  0024               	movlb	4	; select bank4
  2842  0211  0495               	iorwf	21,f	;volatile
  2843  0212                     l1795:	
  2844                           
  2845                           ;mcc_generated_files/i2c1_slave.c: 302:         SSP1CON2 = 0x00;
  2846  0212  0196               	clrf	22	;volatile
  2847  0213                     l1797:	
  2848                           
  2849                           ;mcc_generated_files/i2c1_slave.c: 303:         SSP1CON1bits.SSPEN = 1;
  2850  0213  1695               	bsf	21,5	;volatile
  2851  0214                     l263:	
  2852  0214  0008               	return
  2853  0215                     __end_of_I2C1_SlaveOpen:	
  2854                           
  2855                           	psect	text19
  2856  02D3                     __ptext19:	
  2857 ;; *************** function _I2C1_SlaveEnableIrq *****************
  2858 ;; Defined at:
  2859 ;;		line 327 in file "mcc_generated_files/i2c1_slave.c"
  2860 ;; Parameters:    Size  Location     Type
  2861 ;;		None
  2862 ;; Auto vars:     Size  Location     Type
  2863 ;;		None
  2864 ;; Return value:  Size  Location     Type
  2865 ;;                  1    wreg      void 
  2866 ;; Registers used:
  2867 ;;		None
  2868 ;; Tracked objects:
  2869 ;;		On entry : 0/0
  2870 ;;		On exit  : 0/0
  2871 ;;		Unchanged: 0/0
  2872 ;; Data sizes:     COMMON   BANK0   BANK1   BANK2   BANK3   BANK4
  2873 ;;      Params:         0       0       0       0       0       0
  2874 ;;      Locals:         0       0       0       0       0       0
  2875 ;;      Temps:          0       0       0       0       0       0
  2876 ;;      Totals:         0       0       0       0       0       0
  2877 ;;Total ram usage:        0 bytes
  2878 ;; Hardware stack levels used:    1
  2879 ;; Hardware stack levels required when called:    5
  2880 ;; This function calls:
  2881 ;;		Nothing
  2882 ;; This function is called by:
  2883 ;;		_I2C1_Open
  2884 ;; This function uses a non-reentrant model
  2885 ;;
  2886                           
  2887                           
  2888                           ;psect for function _I2C1_SlaveEnableIrq
  2889  02D3                     _I2C1_SlaveEnableIrq:	
  2890  02D3                     l1817:	
  2891                           ;incstack = 0
  2892                           ; Regs used in _I2C1_SlaveEnableIrq: []
  2893                           
  2894                           
  2895                           ;mcc_generated_files/i2c1_slave.c: 329:     PIE1bits.SSP1IE = 1;
  2896  02D3  0021               	movlb	1	; select bank1
  2897  02D4  1591               	bsf	17,3	;volatile
  2898  02D5                     l275:	
  2899  02D5  0008               	return
  2900  02D6                     __end_of_I2C1_SlaveEnableIrq:	
  2901                           
  2902                           	psect	intentry
  2903  0004                     __pintentry:	
  2904 ;; *************** function _INTERRUPT_InterruptManager *****************
  2905 ;; Defined at:
  2906 ;;		line 52 in file "mcc_generated_files/interrupt_manager.c"
  2907 ;; Parameters:    Size  Location     Type
  2908 ;;		None
  2909 ;; Auto vars:     Size  Location     Type
  2910 ;;		None
  2911 ;; Return value:  Size  Location     Type
  2912 ;;                  1    wreg      void 
  2913 ;; Registers used:
  2914 ;;		wreg, fsr0l, fsr0h, fsr1l, fsr1h, status,2, status,0, pclath, cstack
  2915 ;; Tracked objects:
  2916 ;;		On entry : 0/0
  2917 ;;		On exit  : 0/0
  2918 ;;		Unchanged: 0/0
  2919 ;; Data sizes:     COMMON   BANK0   BANK1   BANK2   BANK3   BANK4
  2920 ;;      Params:         0       0       0       0       0       0
  2921 ;;      Locals:         0       0       0       0       0       0
  2922 ;;      Temps:          0       0       0       0       0       0
  2923 ;;      Totals:         0       0       0       0       0       0
  2924 ;;Total ram usage:        0 bytes
  2925 ;; Hardware stack levels used:    1
  2926 ;; Hardware stack levels required when called:    4
  2927 ;; This function calls:
  2928 ;;		Absolute function
  2929 ;;		_I2C1_Isr
  2930 ;;		_TMR1_ISR
  2931 ;; This function is called by:
  2932 ;;		Interrupt level 1
  2933 ;; This function uses a non-reentrant model
  2934 ;;
  2935                           
  2936  0004                     _INTERRUPT_InterruptManager:	
  2937                           
  2938                           ;incstack = 0
  2939  0004  147E               	bsf	int$flags,0	;set compiler interrupt flag (level 1)
  2940                           
  2941                           ; Regs used in _INTERRUPT_InterruptManager: [wreg-fsr1h+status,2+status,0+pclath+cstack]
  2942  0005  3180               	pagesel	$
  2943  0006                     i1l1713:	
  2944                           
  2945                           ;mcc_generated_files/interrupt_manager.c: 55:     if(INTCONbits.PEIE == 1)
  2946  0006  1F0B               	btfss	11,6	;volatile
  2947  0007  2809               	goto	u59_21
  2948  0008  280A               	goto	u59_20
  2949  0009                     u59_21:	
  2950  0009  2833               	goto	i1l354
  2951  000A                     u59_20:	
  2952  000A                     i1l1715:	
  2953                           
  2954                           ;mcc_generated_files/interrupt_manager.c: 56:     {;mcc_generated_files/interrupt_manage
      +                          r.c: 57:         if(PIE1bits.SSP1IE == 1 && PIR1bits.SSP1IF == 1)
  2955  000A  0021               	movlb	1	; select bank1
  2956  000B  1D91               	btfss	17,3	;volatile
  2957  000C  280E               	goto	u60_21
  2958  000D  280F               	goto	u60_20
  2959  000E                     u60_21:	
  2960  000E  281A               	goto	i1l347
  2961  000F                     u60_20:	
  2962  000F                     i1l1717:	
  2963  000F  0020               	movlb	0	; select bank0
  2964  0010  1D91               	btfss	17,3	;volatile
  2965  0011  2813               	goto	u61_21
  2966  0012  2814               	goto	u61_20
  2967  0013                     u61_21:	
  2968  0013  281A               	goto	i1l347
  2969  0014                     u61_20:	
  2970  0014                     i1l1719:	
  2971                           
  2972                           ;mcc_generated_files/interrupt_manager.c: 58:         {;mcc_generated_files/interrupt_ma
      +                          nager.c: 59:             MSSP1_InterruptHandler();
  2973  0014  0831               	movf	_MSSP1_InterruptHandler+1,w
  2974  0015  008A               	movwf	10
  2975  0016  0830               	movf	_MSSP1_InterruptHandler,w
  2976  0017  000A               	callw
  2977  0018  3180               	pagesel	$
  2978                           
  2979                           ;mcc_generated_files/interrupt_manager.c: 60:         }
  2980  0019  2833               	goto	i1l354
  2981  001A                     i1l347:	
  2982                           ;mcc_generated_files/interrupt_manager.c: 61:         else if(PIE2bits.BCL1IE == 1 && PI
      +                          R2bits.BCL1IF == 1)
  2983                           
  2984  001A  0021               	movlb	1	; select bank1
  2985  001B  1D92               	btfss	18,3	;volatile
  2986  001C  281E               	goto	u62_21
  2987  001D  281F               	goto	u62_20
  2988  001E                     u62_21:	
  2989  001E  2825               	goto	i1l349
  2990  001F                     u62_20:	
  2991  001F                     i1l1721:	
  2992  001F  0020               	movlb	0	; select bank0
  2993  0020  1D92               	btfss	18,3	;volatile
  2994  0021  2823               	goto	u63_21
  2995  0022  2824               	goto	u63_20
  2996  0023                     u63_21:	
  2997  0023  2825               	goto	i1l349
  2998  0024                     u63_20:	
  2999  0024  2814               	goto	i1l1719
  3000  0025                     i1l349:	
  3001                           ;mcc_generated_files/interrupt_manager.c: 65:         else if(PIE1bits.TMR1IE == 1 && PI
      +                          R1bits.TMR1IF == 1)
  3002                           
  3003  0025  0021               	movlb	1	; select bank1
  3004  0026  1C11               	btfss	17,0	;volatile
  3005  0027  2829               	goto	u64_21
  3006  0028  282A               	goto	u64_20
  3007  0029                     u64_21:	
  3008  0029  2833               	goto	i1l348
  3009  002A                     u64_20:	
  3010  002A                     i1l1725:	
  3011  002A  0020               	movlb	0	; select bank0
  3012  002B  1C11               	btfss	17,0	;volatile
  3013  002C  282E               	goto	u65_21
  3014  002D  282F               	goto	u65_20
  3015  002E                     u65_21:	
  3016  002E  2833               	goto	i1l348
  3017  002F                     u65_20:	
  3018  002F                     i1l1727:	
  3019                           
  3020                           ;mcc_generated_files/interrupt_manager.c: 66:         {;mcc_generated_files/interrupt_ma
      +                          nager.c: 67:             TMR1_ISR();
  3021  002F  3181  21B9  3180   	fcall	_TMR1_ISR
  3022                           
  3023                           ;mcc_generated_files/interrupt_manager.c: 68:         }
  3024  0032  2833               	goto	i1l354
  3025  0033                     i1l348:	
  3026  0033                     i1l354:	
  3027                           ;mcc_generated_files/interrupt_manager.c: 73:     }
  3028                           
  3029  0033  107E               	bcf	int$flags,0	;clear compiler interrupt flag (level 1)
  3030  0034  0009               	retfie
  3031  0035                     __end_of_INTERRUPT_InterruptManager:	
  3032                           
  3033                           	psect	text21
  3034  01B9                     __ptext21:	
  3035 ;; *************** function _TMR1_ISR *****************
  3036 ;; Defined at:
  3037 ;;		line 157 in file "mcc_generated_files/tmr1.c"
  3038 ;; Parameters:    Size  Location     Type
  3039 ;;		None
  3040 ;; Auto vars:     Size  Location     Type
  3041 ;;		None
  3042 ;; Return value:  Size  Location     Type
  3043 ;;                  1    wreg      void 
  3044 ;; Registers used:
  3045 ;;		wreg, fsr1l, fsr1h, status,2, status,0, pclath, cstack
  3046 ;; Tracked objects:
  3047 ;;		On entry : 0/0
  3048 ;;		On exit  : 0/0
  3049 ;;		Unchanged: 0/0
  3050 ;; Data sizes:     COMMON   BANK0   BANK1   BANK2   BANK3   BANK4
  3051 ;;      Params:         0       0       0       0       0       0
  3052 ;;      Locals:         0       0       0       0       0       0
  3053 ;;      Temps:          0       0       0       0       0       0
  3054 ;;      Totals:         0       0       0       0       0       0
  3055 ;;Total ram usage:        0 bytes
  3056 ;; Hardware stack levels used:    1
  3057 ;; Hardware stack levels required when called:    1
  3058 ;; This function calls:
  3059 ;;		Absolute function
  3060 ;;		_TMR1_DefaultInterruptHandler
  3061 ;;		_TMR1_WriteTimer
  3062 ;;		_Timer_ISR
  3063 ;; This function is called by:
  3064 ;;		_INTERRUPT_InterruptManager
  3065 ;; This function uses a non-reentrant model
  3066 ;;
  3067                           
  3068                           
  3069                           ;psect for function _TMR1_ISR
  3070  01B9                     _TMR1_ISR:	
  3071  01B9                     i1l1647:	
  3072                           ;incstack = 0
  3073                           ; Regs used in _TMR1_ISR: [wreg+fsr1l+fsr1h+status,2+status,0+pclath+cstack]
  3074                           
  3075                           
  3076                           ;mcc_generated_files/tmr1.c: 161:     PIR1bits.TMR1IF = 0;
  3077  01B9  0020               	movlb	0	; select bank0
  3078  01BA  1011               	bcf	17,0	;volatile
  3079  01BB                     i1l1649:	
  3080                           
  3081                           ;mcc_generated_files/tmr1.c: 162:     TMR1_WriteTimer(timer1ReloadVal);
  3082  01BB  0838               	movf	_timer1ReloadVal+1,w	;volatile
  3083  01BC  00FA               	movwf	TMR1_WriteTimer@timerVal+1
  3084  01BD  0837               	movf	_timer1ReloadVal,w	;volatile
  3085  01BE  00F9               	movwf	TMR1_WriteTimer@timerVal
  3086  01BF  3181  21E4  3181   	fcall	_TMR1_WriteTimer
  3087  01C2                     i1l1651:	
  3088                           
  3089                           ;mcc_generated_files/tmr1.c: 164:     if(TMR1_InterruptHandler)
  3090  01C2  0020               	movlb	0	; select bank0
  3091  01C3  0835               	movf	_TMR1_InterruptHandler,w
  3092  01C4  0436               	iorwf	_TMR1_InterruptHandler+1,w
  3093  01C5  1903               	btfsc	3,2
  3094  01C6  29C8               	goto	u54_21
  3095  01C7  29C9               	goto	u54_20
  3096  01C8                     u54_21:	
  3097  01C8  29CE               	goto	i1l54
  3098  01C9                     u54_20:	
  3099  01C9                     i1l1653:	
  3100                           
  3101                           ;mcc_generated_files/tmr1.c: 165:     {;mcc_generated_files/tmr1.c: 166:         TMR1_In
      +                          terruptHandler();
  3102  01C9  0836               	movf	_TMR1_InterruptHandler+1,w
  3103  01CA  008A               	movwf	10
  3104  01CB  0835               	movf	_TMR1_InterruptHandler,w
  3105  01CC  000A               	callw
  3106  01CD  3181               	pagesel	$
  3107  01CE                     i1l54:	
  3108  01CE  0008               	return
  3109  01CF                     __end_of_TMR1_ISR:	
  3110                           
  3111                           	psect	text22
  3112  02E7                     __ptext22:	
  3113 ;; *************** function _TMR1_DefaultInterruptHandler *****************
  3114 ;; Defined at:
  3115 ;;		line 175 in file "mcc_generated_files/tmr1.c"
  3116 ;; Parameters:    Size  Location     Type
  3117 ;;		None
  3118 ;; Auto vars:     Size  Location     Type
  3119 ;;		None
  3120 ;; Return value:  Size  Location     Type
  3121 ;;                  1    wreg      void 
  3122 ;; Registers used:
  3123 ;;		None
  3124 ;; Tracked objects:
  3125 ;;		On entry : 0/0
  3126 ;;		On exit  : 0/0
  3127 ;;		Unchanged: 0/0
  3128 ;; Data sizes:     COMMON   BANK0   BANK1   BANK2   BANK3   BANK4
  3129 ;;      Params:         0       0       0       0       0       0
  3130 ;;      Locals:         0       0       0       0       0       0
  3131 ;;      Temps:          0       0       0       0       0       0
  3132 ;;      Totals:         0       0       0       0       0       0
  3133 ;;Total ram usage:        0 bytes
  3134 ;; Hardware stack levels used:    1
  3135 ;; This function calls:
  3136 ;;		Nothing
  3137 ;; This function is called by:
  3138 ;;		_TMR1_Initialize
  3139 ;;		_TMR1_ISR
  3140 ;; This function uses a non-reentrant model
  3141 ;;
  3142                           
  3143                           
  3144                           ;psect for function _TMR1_DefaultInterruptHandler
  3145  02E7                     _TMR1_DefaultInterruptHandler:	
  3146  02E7                     i1l60:	
  3147                           ;incstack = 0
  3148                           ; Regs used in _TMR1_DefaultInterruptHandler: []
  3149                           
  3150  02E7  0008               	return
  3151  02E8                     __end_of_TMR1_DefaultInterruptHandler:	
  3152                           
  3153                           	psect	text23
  3154  004B                     __ptext23:	
  3155 ;; *************** function _Timer_ISR *****************
  3156 ;; Defined at:
  3157 ;;		line 28 in file "main.c"
  3158 ;; Parameters:    Size  Location     Type
  3159 ;;		None
  3160 ;; Auto vars:     Size  Location     Type
  3161 ;;		None
  3162 ;; Return value:  Size  Location     Type
  3163 ;;                  1    wreg      void 
  3164 ;; Registers used:
  3165 ;;		wreg, fsr1l, fsr1h, status,2, status,0
  3166 ;; Tracked objects:
  3167 ;;		On entry : 0/0
  3168 ;;		On exit  : 0/0
  3169 ;;		Unchanged: 0/0
  3170 ;; Data sizes:     COMMON   BANK0   BANK1   BANK2   BANK3   BANK4
  3171 ;;      Params:         0       0       0       0       0       0
  3172 ;;      Locals:         0       0       0       0       0       0
  3173 ;;      Temps:          1       0       0       0       0       0
  3174 ;;      Totals:         1       0       0       0       0       0
  3175 ;;Total ram usage:        1 bytes
  3176 ;; Hardware stack levels used:    1
  3177 ;; This function calls:
  3178 ;;		Nothing
  3179 ;; This function is called by:
  3180 ;;		_main
  3181 ;;		_TMR1_ISR
  3182 ;; This function uses a non-reentrant model
  3183 ;;
  3184                           
  3185                           
  3186                           ;psect for function _Timer_ISR
  3187  004B                     _Timer_ISR:	
  3188  004B                     i1l1611:	
  3189                           ;incstack = 0
  3190                           ; Regs used in _Timer_ISR: [wreg+fsr1l+fsr1h+status,2+status,0]
  3191                           
  3192                           
  3193                           ;main.c: 30:     if(DisplayCnt == 0){
  3194  004B  0870               	movf	_DisplayCnt,w
  3195  004C  0471               	iorwf	_DisplayCnt+1,w
  3196  004D  1D03               	btfss	3,2
  3197  004E  2850               	goto	u39_21
  3198  004F  2851               	goto	u39_20
  3199  0050                     u39_21:	
  3200  0050  2885               	goto	i1l1625
  3201  0051                     u39_20:	
  3202  0051                     i1l1613:	
  3203                           
  3204                           ;main.c: 31:         if(DisplayNum == 0) do { LATAbits.LATA4 = 1; } while(0);
  3205  0051  0873               	movf	_DisplayNum,w
  3206  0052  1D03               	btfss	3,2
  3207  0053  2855               	goto	u40_21
  3208  0054  2856               	goto	u40_20
  3209  0055                     u40_21:	
  3210  0055  2859               	goto	i1l1615
  3211  0056                     u40_20:	
  3212  0056                     i1l472:	
  3213  0056  0022               	movlb	2	; select bank2
  3214  0057  160C               	bsf	12,4	;volatile
  3215  0058  28D4               	goto	i1l1643
  3216  0059                     i1l1615:	
  3217  0059  0373               	decf	_DisplayNum,w
  3218  005A  1D03               	btfss	3,2
  3219  005B  285D               	goto	u41_21
  3220  005C  285E               	goto	u41_20
  3221  005D                     u41_21:	
  3222  005D  2861               	goto	i1l1617
  3223  005E                     u41_20:	
  3224  005E                     i1l476:	
  3225  005E  0022               	movlb	2	; select bank2
  3226  005F  170C               	bsf	12,6	;volatile
  3227  0060  28D4               	goto	i1l1643
  3228  0061                     i1l1617:	
  3229  0061  3002               	movlw	2
  3230  0062  0673               	xorwf	_DisplayNum,w
  3231  0063  1D03               	btfss	3,2
  3232  0064  2866               	goto	u42_21
  3233  0065  2867               	goto	u42_20
  3234  0066                     u42_21:	
  3235  0066  286A               	goto	i1l1619
  3236  0067                     u42_20:	
  3237  0067                     i1l480:	
  3238  0067  0022               	movlb	2	; select bank2
  3239  0068  178C               	bsf	12,7	;volatile
  3240  0069  28D4               	goto	i1l1643
  3241  006A                     i1l1619:	
  3242  006A  3003               	movlw	3
  3243  006B  0673               	xorwf	_DisplayNum,w
  3244  006C  1D03               	btfss	3,2
  3245  006D  286F               	goto	u43_21
  3246  006E  2870               	goto	u43_20
  3247  006F                     u43_21:	
  3248  006F  2873               	goto	i1l1621
  3249  0070                     u43_20:	
  3250  0070                     i1l484:	
  3251  0070  0022               	movlb	2	; select bank2
  3252  0071  140D               	bsf	13,0	;volatile
  3253  0072  28D4               	goto	i1l1643
  3254  0073                     i1l1621:	
  3255  0073  3004               	movlw	4
  3256  0074  0673               	xorwf	_DisplayNum,w
  3257  0075  1D03               	btfss	3,2
  3258  0076  2878               	goto	u44_21
  3259  0077  2879               	goto	u44_20
  3260  0078                     u44_21:	
  3261  0078  287C               	goto	i1l1623
  3262  0079                     u44_20:	
  3263  0079                     i1l488:	
  3264  0079  0022               	movlb	2	; select bank2
  3265  007A  150D               	bsf	13,2	;volatile
  3266  007B  28D4               	goto	i1l1643
  3267  007C                     i1l1623:	
  3268  007C  3005               	movlw	5
  3269  007D  0673               	xorwf	_DisplayNum,w
  3270  007E  1D03               	btfss	3,2
  3271  007F  2881               	goto	u45_21
  3272  0080  2882               	goto	u45_20
  3273  0081                     u45_21:	
  3274  0081  28D4               	goto	i1l1643
  3275  0082                     u45_20:	
  3276  0082                     i1l492:	
  3277  0082  0022               	movlb	2	; select bank2
  3278  0083  168D               	bsf	13,5	;volatile
  3279  0084  28D4               	goto	i1l1643
  3280  0085                     i1l1625:	
  3281  0085  301E               	movlw	30
  3282  0086  0670               	xorwf	_DisplayCnt,w
  3283  0087  0471               	iorwf	_DisplayCnt+1,w
  3284  0088  1D03               	btfss	3,2
  3285  0089  288B               	goto	u46_21
  3286  008A  288C               	goto	u46_20
  3287  008B                     u46_21:	
  3288  008B  2894               	goto	i1l1627
  3289  008C                     u46_20:	
  3290  008C                     i1l496:	
  3291                           ;main.c: 38:         do { LATAbits.LATA4 = 0; } while(0);
  3292                           
  3293  008C  0022               	movlb	2	; select bank2
  3294  008D  120C               	bcf	12,4	;volatile
  3295  008E                     i1l498:	
  3296                           ;main.c: 39:         do { LATAbits.LATA6 = 0; } while(0);
  3297                           
  3298  008E  130C               	bcf	12,6	;volatile
  3299  008F                     i1l500:	
  3300                           ;main.c: 40:         do { LATAbits.LATA7 = 0; } while(0);
  3301                           
  3302  008F  138C               	bcf	12,7	;volatile
  3303  0090                     i1l502:	
  3304                           ;main.c: 41:         do { LATBbits.LATB0 = 0; } while(0);
  3305                           
  3306  0090  100D               	bcf	13,0	;volatile
  3307  0091                     i1l504:	
  3308                           ;main.c: 42:         do { LATBbits.LATB2 = 0; } while(0);
  3309                           
  3310  0091  110D               	bcf	13,2	;volatile
  3311  0092                     i1l506:	
  3312                           ;main.c: 43:         do { LATBbits.LATB5 = 0; } while(0);
  3313                           
  3314  0092  128D               	bcf	13,5	;volatile
  3315  0093  28D4               	goto	i1l1643
  3316  0094                     i1l1627:	
  3317  0094  3032               	movlw	50
  3318  0095  0670               	xorwf	_DisplayCnt,w
  3319  0096  0471               	iorwf	_DisplayCnt+1,w
  3320  0097  1D03               	btfss	3,2
  3321  0098  289A               	goto	u47_21
  3322  0099  289B               	goto	u47_20
  3323  009A                     u47_21:	
  3324  009A  28D4               	goto	i1l1643
  3325  009B                     u47_20:	
  3326  009B                     i1l1629:	
  3327                           
  3328                           ;main.c: 45:         DisplayNum++;
  3329  009B  3001               	movlw	1
  3330  009C  00F9               	movwf	??_Timer_ISR
  3331  009D  0879               	movf	??_Timer_ISR,w
  3332  009E  07F3               	addwf	_DisplayNum,f
  3333  009F                     i1l1631:	
  3334                           
  3335                           ;main.c: 46:         if(DisplayNum >= 6) DisplayNum = 0;
  3336  009F  3006               	movlw	6
  3337  00A0  0273               	subwf	_DisplayNum,w
  3338  00A1  1C03               	skipc
  3339  00A2  28A4               	goto	u48_21
  3340  00A3  28A5               	goto	u48_20
  3341  00A4                     u48_21:	
  3342  00A4  28A6               	goto	i1l1635
  3343  00A5                     u48_20:	
  3344  00A5                     i1l1633:	
  3345  00A5  01F3               	clrf	_DisplayNum
  3346  00A6                     i1l1635:	
  3347                           
  3348                           ;main.c: 48:         if((DisplayVal[DisplayNum] & 0b0001) != 0) do { LATAbits.LATA1 = 1;
      +                           } while(0);
  3349  00A6  0873               	movf	_DisplayNum,w
  3350  00A7  3E20               	addlw	(low (_DisplayVal| 0))& (0+255)
  3351  00A8  0086               	movwf	6
  3352  00A9  0187               	clrf	7
  3353  00AA  1C01               	btfss	1,0
  3354  00AB  28AD               	goto	u49_21
  3355  00AC  28AE               	goto	u49_20
  3356  00AD                     u49_21:	
  3357  00AD  28B1               	goto	i1l515
  3358  00AE                     u49_20:	
  3359  00AE                     i1l512:	
  3360  00AE  0022               	movlb	2	; select bank2
  3361  00AF  148C               	bsf	12,1	;volatile
  3362  00B0  28B3               	goto	i1l1637
  3363  00B1                     i1l515:	
  3364  00B1  0022               	movlb	2	; select bank2
  3365  00B2  108C               	bcf	12,1	;volatile
  3366  00B3                     i1l1637:	
  3367                           
  3368                           ;main.c: 51:         if((DisplayVal[DisplayNum] & 0b0010) != 0) do { LATAbits.LATA0 = 1;
      +                           } while(0);
  3369  00B3  0873               	movf	_DisplayNum,w
  3370  00B4  3E20               	addlw	(low (_DisplayVal| 0))& (0+255)
  3371  00B5  0086               	movwf	6
  3372  00B6  0187               	clrf	7
  3373  00B7  1C81               	btfss	1,1
  3374  00B8  28BA               	goto	u50_21
  3375  00B9  28BB               	goto	u50_20
  3376  00BA                     u50_21:	
  3377  00BA  28BD               	goto	i1l521
  3378  00BB                     u50_20:	
  3379  00BB                     i1l518:	
  3380  00BB  140C               	bsf	12,0	;volatile
  3381  00BC  28BE               	goto	i1l1639
  3382  00BD                     i1l521:	
  3383  00BD  100C               	bcf	12,0	;volatile
  3384  00BE                     i1l1639:	
  3385                           
  3386                           ;main.c: 54:         if((DisplayVal[DisplayNum] & 0b0100) != 0) do { LATAbits.LATA3 = 1;
      +                           } while(0);
  3387  00BE  0873               	movf	_DisplayNum,w
  3388  00BF  3E20               	addlw	(low (_DisplayVal| 0))& (0+255)
  3389  00C0  0086               	movwf	6
  3390  00C1  0187               	clrf	7
  3391  00C2  1D01               	btfss	1,2
  3392  00C3  28C5               	goto	u51_21
  3393  00C4  28C6               	goto	u51_20
  3394  00C5                     u51_21:	
  3395  00C5  28C8               	goto	i1l527
  3396  00C6                     u51_20:	
  3397  00C6                     i1l524:	
  3398  00C6  158C               	bsf	12,3	;volatile
  3399  00C7  28C9               	goto	i1l1641
  3400  00C8                     i1l527:	
  3401  00C8  118C               	bcf	12,3	;volatile
  3402  00C9                     i1l1641:	
  3403                           
  3404                           ;main.c: 57:         if((DisplayVal[DisplayNum] & 0b1000) != 0) do { LATAbits.LATA2 = 1;
      +                           } while(0);
  3405  00C9  0873               	movf	_DisplayNum,w
  3406  00CA  3E20               	addlw	(low (_DisplayVal| 0))& (0+255)
  3407  00CB  0086               	movwf	6
  3408  00CC  0187               	clrf	7
  3409  00CD  1D81               	btfss	1,3
  3410  00CE  28D0               	goto	u52_21
  3411  00CF  28D1               	goto	u52_20
  3412  00D0                     u52_21:	
  3413  00D0  28D3               	goto	i1l533
  3414  00D1                     u52_20:	
  3415  00D1                     i1l530:	
  3416  00D1  150C               	bsf	12,2	;volatile
  3417  00D2  28D4               	goto	i1l1643
  3418  00D3                     i1l533:	
  3419  00D3  110C               	bcf	12,2	;volatile
  3420  00D4                     i1l1643:	
  3421                           
  3422                           ;main.c: 63:     DisplayCnt++;
  3423  00D4  3001               	movlw	1
  3424  00D5  07F0               	addwf	_DisplayCnt,f
  3425  00D6  3000               	movlw	0
  3426  00D7  3DF1               	addwfc	_DisplayCnt+1,f
  3427                           
  3428                           ;main.c: 64:     if(DisplayCnt > 50)DisplayCnt = 0;
  3429  00D8  3000               	movlw	0
  3430  00D9  0271               	subwf	_DisplayCnt+1,w
  3431  00DA  3033               	movlw	51
  3432  00DB  1903               	skipnz
  3433  00DC  0270               	subwf	_DisplayCnt,w
  3434  00DD  1C03               	skipc
  3435  00DE  28E0               	goto	u53_21
  3436  00DF  28E1               	goto	u53_20
  3437  00E0                     u53_21:	
  3438  00E0  28E3               	goto	i1l537
  3439  00E1                     u53_20:	
  3440  00E1                     i1l1645:	
  3441  00E1  01F0               	clrf	_DisplayCnt
  3442  00E2  01F1               	clrf	_DisplayCnt+1
  3443  00E3                     i1l537:	
  3444  00E3  0008               	return
  3445  00E4                     __end_of_Timer_ISR:	
  3446                           
  3447                           	psect	text24
  3448  01E4                     __ptext24:	
  3449 ;; *************** function _TMR1_WriteTimer *****************
  3450 ;; Defined at:
  3451 ;;		line 120 in file "mcc_generated_files/tmr1.c"
  3452 ;; Parameters:    Size  Location     Type
  3453 ;;  timerVal        2    0[COMMON] unsigned short 
  3454 ;; Auto vars:     Size  Location     Type
  3455 ;;		None
  3456 ;; Return value:  Size  Location     Type
  3457 ;;                  1    wreg      void 
  3458 ;; Registers used:
  3459 ;;		wreg, status,2
  3460 ;; Tracked objects:
  3461 ;;		On entry : 0/0
  3462 ;;		On exit  : 0/0
  3463 ;;		Unchanged: 0/0
  3464 ;; Data sizes:     COMMON   BANK0   BANK1   BANK2   BANK3   BANK4
  3465 ;;      Params:         2       0       0       0       0       0
  3466 ;;      Locals:         0       0       0       0       0       0
  3467 ;;      Temps:          0       0       0       0       0       0
  3468 ;;      Totals:         2       0       0       0       0       0
  3469 ;;Total ram usage:        2 bytes
  3470 ;; Hardware stack levels used:    1
  3471 ;; This function calls:
  3472 ;;		Nothing
  3473 ;; This function is called by:
  3474 ;;		_TMR1_ISR
  3475 ;;		_TMR1_Reload
  3476 ;; This function uses a non-reentrant model
  3477 ;;
  3478                           
  3479                           
  3480                           ;psect for function _TMR1_WriteTimer
  3481  01E4                     _TMR1_WriteTimer:	
  3482  01E4                     i1l1551:	
  3483                           ;incstack = 0
  3484                           ; Regs used in _TMR1_WriteTimer: [wreg+status,2]
  3485                           
  3486                           
  3487                           ;mcc_generated_files/tmr1.c: 120: void TMR1_WriteTimer(uint16_t timerVal);mcc_generated_
      +                          files/tmr1.c: 121: {;mcc_generated_files/tmr1.c: 122:     if (T1CONbits.nT1SYNC == 1)
  3488  01E4  0020               	movlb	0	; select bank0
  3489  01E5  1D18               	btfss	24,2	;volatile
  3490  01E6  29E8               	goto	u34_21
  3491  01E7  29E9               	goto	u34_20
  3492  01E8                     u34_21:	
  3493  01E8  29F0               	goto	i1l1561
  3494  01E9                     u34_20:	
  3495  01E9                     i1l1553:	
  3496                           
  3497                           ;mcc_generated_files/tmr1.c: 123:     {;mcc_generated_files/tmr1.c: 125:         T1CONbi
      +                          ts.TMR1ON = 0;
  3498  01E9  1018               	bcf	24,0	;volatile
  3499  01EA                     i1l1555:	
  3500                           
  3501                           ;mcc_generated_files/tmr1.c: 128:         TMR1H = (timerVal >> 8);
  3502  01EA  087A               	movf	TMR1_WriteTimer@timerVal+1,w
  3503  01EB  0097               	movwf	23	;volatile
  3504  01EC                     i1l1557:	
  3505                           
  3506                           ;mcc_generated_files/tmr1.c: 129:         TMR1L = timerVal;
  3507  01EC  0879               	movf	TMR1_WriteTimer@timerVal,w
  3508  01ED  0096               	movwf	22	;volatile
  3509  01EE                     i1l1559:	
  3510                           
  3511                           ;mcc_generated_files/tmr1.c: 132:         T1CONbits.TMR1ON =1;
  3512  01EE  1418               	bsf	24,0	;volatile
  3513                           
  3514                           ;mcc_generated_files/tmr1.c: 133:     }
  3515  01EF  29F4               	goto	i1l41
  3516  01F0                     i1l1561:	
  3517                           
  3518                           ;mcc_generated_files/tmr1.c: 135:     {;mcc_generated_files/tmr1.c: 137:         TMR1H =
      +                           (timerVal >> 8);
  3519  01F0  087A               	movf	TMR1_WriteTimer@timerVal+1,w
  3520  01F1  0097               	movwf	23	;volatile
  3521  01F2                     i1l1563:	
  3522                           
  3523                           ;mcc_generated_files/tmr1.c: 138:         TMR1L = timerVal;
  3524  01F2  0879               	movf	TMR1_WriteTimer@timerVal,w
  3525  01F3  0096               	movwf	22	;volatile
  3526  01F4                     i1l41:	
  3527  01F4  0008               	return
  3528  01F5                     __end_of_TMR1_WriteTimer:	
  3529                           
  3530                           	psect	text25
  3531  00E4                     __ptext25:	
  3532 ;; *************** function _I2C1_Isr *****************
  3533 ;; Defined at:
  3534 ;;		line 156 in file "mcc_generated_files/i2c1_slave.c"
  3535 ;; Parameters:    Size  Location     Type
  3536 ;;		None
  3537 ;; Auto vars:     Size  Location     Type
  3538 ;;		None
  3539 ;; Return value:  Size  Location     Type
  3540 ;;                  1    wreg      void 
  3541 ;; Registers used:
  3542 ;;		wreg, fsr0l, fsr0h, fsr1l, fsr1h, status,2, status,0, pclath, cstack
  3543 ;; Tracked objects:
  3544 ;;		On entry : 0/0
  3545 ;;		On exit  : 0/0
  3546 ;;		Unchanged: 0/0
  3547 ;; Data sizes:     COMMON   BANK0   BANK1   BANK2   BANK3   BANK4
  3548 ;;      Params:         0       0       0       0       0       0
  3549 ;;      Locals:         0       0       0       0       0       0
  3550 ;;      Temps:          2       0       0       0       0       0
  3551 ;;      Totals:         2       0       0       0       0       0
  3552 ;;Total ram usage:        2 bytes
  3553 ;; Hardware stack levels used:    1
  3554 ;; Hardware stack levels required when called:    3
  3555 ;; This function calls:
  3556 ;;		_I2C1_SlaveAddrCallBack
  3557 ;;		_I2C1_SlaveClearIrq
  3558 ;;		_I2C1_SlaveGetRxData
  3559 ;;		_I2C1_SlaveIsData
  3560 ;;		_I2C1_SlaveIsRead
  3561 ;;		_I2C1_SlaveIsWriteCollision
  3562 ;;		_I2C1_SlaveRdCallBack
  3563 ;;		_I2C1_SlaveReleaseClock
  3564 ;;		_I2C1_SlaveRestart
  3565 ;;		_I2C1_SlaveWrCallBack
  3566 ;;		_I2C1_SlaveWrColCallBack
  3567 ;; This function is called by:
  3568 ;;		_I2C1_Open
  3569 ;;		_INTERRUPT_InterruptManager
  3570 ;; This function uses a non-reentrant model
  3571 ;;
  3572                           
  3573                           
  3574                           ;psect for function _I2C1_Isr
  3575  00E4                     _I2C1_Isr:	
  3576  00E4                     i1l1659:	
  3577                           ;incstack = 0
  3578                           ; Regs used in _I2C1_Isr: [wreg-fsr1h+status,2+status,0+pclath+cstack]
  3579                           
  3580                           
  3581                           ;mcc_generated_files/i2c1_slave.c: 158:     I2C1_SlaveClearIrq();
  3582  00E4  3182  22DF  3180   	fcall	_I2C1_SlaveClearIrq
  3583  00E7                     i1l1661:	
  3584                           
  3585                           ;mcc_generated_files/i2c1_slave.c: 161:     i2c1RdData = I2C1_SlaveGetRxData();
  3586  00E7  3182  22DC  3180   	fcall	_I2C1_SlaveGetRxData
  3587  00EA  00FA               	movwf	??_I2C1_Isr
  3588  00EB  087A               	movf	??_I2C1_Isr,w
  3589  00EC  00F5               	movwf	_i2c1RdData	;volatile
  3590  00ED                     i1l1663:	
  3591                           
  3592                           ;mcc_generated_files/i2c1_slave.c: 163:     if(I2C1_SlaveIsRead())
  3593  00ED  3182  22C2  3180   	fcall	_I2C1_SlaveIsRead
  3594  00F0  3A00               	xorlw	0
  3595  00F1  1903               	skipnz
  3596  00F2  28F4               	goto	u55_21
  3597  00F3  28F5               	goto	u55_20
  3598  00F4                     u55_21:	
  3599  00F4  28FA               	goto	i1l1667
  3600  00F5                     u55_20:	
  3601  00F5                     i1l1665:	
  3602                           
  3603                           ;mcc_generated_files/i2c1_slave.c: 164:     {;mcc_generated_files/i2c1_slave.c: 165:    
      +                               i2c1State = I2C1_TX;
  3604  00F5  3001               	movlw	1
  3605  00F6  00FA               	movwf	??_I2C1_Isr
  3606  00F7  087A               	movf	??_I2C1_Isr,w
  3607  00F8  00F8               	movwf	_i2c1State	;volatile
  3608                           
  3609                           ;mcc_generated_files/i2c1_slave.c: 166:     }
  3610  00F9  2923               	goto	i1l1689
  3611  00FA                     i1l1667:	
  3612                           
  3613                           ;mcc_generated_files/i2c1_slave.c: 168:     {;mcc_generated_files/i2c1_slave.c: 169:    
      +                               i2c1State = I2C1_RX;
  3614  00FA  3002               	movlw	2
  3615  00FB  00FA               	movwf	??_I2C1_Isr
  3616  00FC  087A               	movf	??_I2C1_Isr,w
  3617  00FD  00F8               	movwf	_i2c1State	;volatile
  3618  00FE  2923               	goto	i1l1689
  3619  00FF                     i1l1669:	
  3620                           
  3621                           ;mcc_generated_files/i2c1_slave.c: 175:             if(!I2C1_SlaveIsWriteCollision())
  3622  00FF  3182  22BD  3180   	fcall	_I2C1_SlaveIsWriteCollision
  3623  0102  3A00               	xorlw	0
  3624  0103  1D03               	skipz
  3625  0104  2906               	goto	u56_21
  3626  0105  2907               	goto	u56_20
  3627  0106                     u56_21:	
  3628  0106  290B               	goto	i1l1673
  3629  0107                     u56_20:	
  3630  0107                     i1l1671:	
  3631                           
  3632                           ;mcc_generated_files/i2c1_slave.c: 176:             {;mcc_generated_files/i2c1_slave.c: 
      +                          177:                 I2C1_SlaveWrCallBack();
  3633  0107  3182  2222  3180   	fcall	_I2C1_SlaveWrCallBack
  3634                           
  3635                           ;mcc_generated_files/i2c1_slave.c: 178:             }
  3636  010A  2911               	goto	i1l1677
  3637  010B                     i1l1673:	
  3638                           
  3639                           ;mcc_generated_files/i2c1_slave.c: 180:             {;mcc_generated_files/i2c1_slave.c: 
      +                          181:                 I2C1_SlaveWrColCallBack();
  3640  010B  3182  2215  3180   	fcall	_I2C1_SlaveWrColCallBack
  3641  010E                     i1l1675:	
  3642                           
  3643                           ;mcc_generated_files/i2c1_slave.c: 182:                 I2C1_SlaveRestart();
  3644  010E  3182  22D6  3180   	fcall	_I2C1_SlaveRestart
  3645  0111                     i1l1677:	
  3646                           
  3647                           ;mcc_generated_files/i2c1_slave.c: 184:             i2c1NextState = I2C1_ADDR;
  3648  0111  01F7               	clrf	_i2c1NextState	;volatile
  3649                           
  3650                           ;mcc_generated_files/i2c1_slave.c: 185:             break;
  3651  0112  2933               	goto	i1l1691
  3652  0113                     i1l1679:	
  3653                           
  3654                           ;mcc_generated_files/i2c1_slave.c: 188:             if (I2C1_SlaveIsData())
  3655  0113  3182  22C7  3180   	fcall	_I2C1_SlaveIsData
  3656  0116  3A00               	xorlw	0
  3657  0117  1903               	skipnz
  3658  0118  291A               	goto	u57_21
  3659  0119  291B               	goto	u57_20
  3660  011A                     u57_21:	
  3661  011A  291F               	goto	i1l1683
  3662  011B                     u57_20:	
  3663  011B                     i1l1681:	
  3664                           
  3665                           ;mcc_generated_files/i2c1_slave.c: 189:             {;mcc_generated_files/i2c1_slave.c: 
      +                          192:                     I2C1_SlaveRdCallBack();
  3666  011B  3182  222F  3180   	fcall	_I2C1_SlaveRdCallBack
  3667                           
  3668                           ;mcc_generated_files/i2c1_slave.c: 194:             }
  3669  011E  2933               	goto	i1l1691
  3670  011F                     i1l1683:	
  3671                           
  3672                           ;mcc_generated_files/i2c1_slave.c: 196:             {;mcc_generated_files/i2c1_slave.c: 
      +                          197:                 I2C1_SlaveAddrCallBack();
  3673  011F  3182  2249  3180   	fcall	_I2C1_SlaveAddrCallBack
  3674  0122  2911               	goto	i1l1677
  3675  0123                     i1l1689:	
  3676  0123  0878               	movf	_i2c1State,w	;volatile
  3677  0124  00FA               	movwf	??_I2C1_Isr
  3678  0125  01FB               	clrf	??_I2C1_Isr+1
  3679                           
  3680                           ; Switch on 2 bytes has been partitioned into a top level switch of size 1, and 1 sub-sw
      +                          itches
  3681                           ; Switch size 1, requested type "simple"
  3682                           ; Number of cases is 1, Range of values is 0 to 0
  3683                           ; switch strategies available:
  3684                           ; Name         Instructions Cycles
  3685                           ; simple_byte            4     3 (average)
  3686                           ; direct_byte            8     6 (fixed)
  3687                           ; jumptable            260     6 (fixed)
  3688                           ;	Chosen strategy is simple_byte
  3689  0126  087B               	movf	??_I2C1_Isr+1,w
  3690  0127  3A00               	xorlw	0	; case 0
  3691  0128  1903               	skipnz
  3692  0129  292B               	goto	i1l1891
  3693  012A  2933               	goto	i1l1691
  3694  012B                     i1l1891:	
  3695                           
  3696                           ; Switch size 1, requested type "simple"
  3697                           ; Number of cases is 2, Range of values is 1 to 2
  3698                           ; switch strategies available:
  3699                           ; Name         Instructions Cycles
  3700                           ; simple_byte            7     4 (average)
  3701                           ; direct_byte           13     9 (fixed)
  3702                           ; jumptable            263     9 (fixed)
  3703                           ;	Chosen strategy is simple_byte
  3704  012B  087A               	movf	??_I2C1_Isr,w
  3705  012C  3A01               	xorlw	1	; case 1
  3706  012D  1903               	skipnz
  3707  012E  28FF               	goto	i1l1669
  3708  012F  3A03               	xorlw	3	; case 2
  3709  0130  1903               	skipnz
  3710  0131  2913               	goto	i1l1679
  3711  0132  2933               	goto	i1l1691
  3712  0133                     i1l1691:	
  3713                           
  3714                           ;mcc_generated_files/i2c1_slave.c: 204:     i2c1State = i2c1NextState;
  3715  0133  0877               	movf	_i2c1NextState,w	;volatile
  3716  0134  00FA               	movwf	??_I2C1_Isr
  3717  0135  087A               	movf	??_I2C1_Isr,w
  3718  0136  00F8               	movwf	_i2c1State	;volatile
  3719  0137                     i1l1693:	
  3720                           
  3721                           ;mcc_generated_files/i2c1_slave.c: 205:     I2C1_SlaveReleaseClock();
  3722  0137  3182  22D9  3180   	fcall	_I2C1_SlaveReleaseClock
  3723  013A                     i1l206:	
  3724  013A  0008               	return
  3725  013B                     __end_of_I2C1_Isr:	
  3726                           
  3727                           	psect	text26
  3728  0215                     __ptext26:	
  3729 ;; *************** function _I2C1_SlaveWrColCallBack *****************
  3730 ;; Defined at:
  3731 ;;		line 269 in file "mcc_generated_files/i2c1_slave.c"
  3732 ;; Parameters:    Size  Location     Type
  3733 ;;		None
  3734 ;; Auto vars:     Size  Location     Type
  3735 ;;		None
  3736 ;; Return value:  Size  Location     Type
  3737 ;;                  1    wreg      void 
  3738 ;; Registers used:
  3739 ;;		wreg, status,2, status,0, pclath, cstack
  3740 ;; Tracked objects:
  3741 ;;		On entry : 0/0
  3742 ;;		On exit  : 0/0
  3743 ;;		Unchanged: 0/0
  3744 ;; Data sizes:     COMMON   BANK0   BANK1   BANK2   BANK3   BANK4
  3745 ;;      Params:         0       0       0       0       0       0
  3746 ;;      Locals:         0       0       0       0       0       0
  3747 ;;      Temps:          0       0       0       0       0       0
  3748 ;;      Totals:         0       0       0       0       0       0
  3749 ;;Total ram usage:        0 bytes
  3750 ;; Hardware stack levels used:    1
  3751 ;; Hardware stack levels required when called:    1
  3752 ;; This function calls:
  3753 ;;		Absolute function
  3754 ;;		_I2C1_SlaveDefWrColInterruptHandler
  3755 ;; This function is called by:
  3756 ;;		_I2C1_Isr
  3757 ;; This function uses a non-reentrant model
  3758 ;;
  3759                           
  3760                           
  3761                           ;psect for function _I2C1_SlaveWrColCallBack
  3762  0215                     _I2C1_SlaveWrColCallBack:	
  3763  0215                     i1l1591:	
  3764                           ;incstack = 0
  3765                           ; Regs used in _I2C1_SlaveWrColCallBack: [wreg+status,2+status,0+pclath+cstack]
  3766                           
  3767                           
  3768                           ;mcc_generated_files/i2c1_slave.c: 271:     if ( I2C1_SlaveWrColInterruptHandler)
  3769  0215  0020               	movlb	0	; select bank0
  3770  0216  0826               	movf	_I2C1_SlaveWrColInterruptHandler,w
  3771  0217  0427               	iorwf	_I2C1_SlaveWrColInterruptHandler+1,w
  3772  0218  1903               	btfsc	3,2
  3773  0219  2A1B               	goto	u36_21
  3774  021A  2A1C               	goto	u36_20
  3775  021B                     u36_21:	
  3776  021B  2A21               	goto	i1l246
  3777  021C                     u36_20:	
  3778  021C                     i1l1593:	
  3779                           
  3780                           ;mcc_generated_files/i2c1_slave.c: 272:     {;mcc_generated_files/i2c1_slave.c: 273:    
      +                                I2C1_SlaveWrColInterruptHandler();
  3781  021C  0827               	movf	_I2C1_SlaveWrColInterruptHandler+1,w
  3782  021D  008A               	movwf	10
  3783  021E  0826               	movf	_I2C1_SlaveWrColInterruptHandler,w
  3784  021F  000A               	callw
  3785  0220  3182               	pagesel	$
  3786  0221                     i1l246:	
  3787  0221  0008               	return
  3788  0222                     __end_of_I2C1_SlaveWrColCallBack:	
  3789                           
  3790                           	psect	text27
  3791  02E8                     __ptext27:	
  3792 ;; *************** function _I2C1_SlaveDefWrColInterruptHandler *****************
  3793 ;; Defined at:
  3794 ;;		line 277 in file "mcc_generated_files/i2c1_slave.c"
  3795 ;; Parameters:    Size  Location     Type
  3796 ;;		None
  3797 ;; Auto vars:     Size  Location     Type
  3798 ;;		None
  3799 ;; Return value:  Size  Location     Type
  3800 ;;                  1    wreg      void 
  3801 ;; Registers used:
  3802 ;;		None
  3803 ;; Tracked objects:
  3804 ;;		On entry : 0/0
  3805 ;;		On exit  : 0/0
  3806 ;;		Unchanged: 0/0
  3807 ;; Data sizes:     COMMON   BANK0   BANK1   BANK2   BANK3   BANK4
  3808 ;;      Params:         0       0       0       0       0       0
  3809 ;;      Locals:         0       0       0       0       0       0
  3810 ;;      Temps:          0       0       0       0       0       0
  3811 ;;      Totals:         0       0       0       0       0       0
  3812 ;;Total ram usage:        0 bytes
  3813 ;; Hardware stack levels used:    1
  3814 ;; This function calls:
  3815 ;;		Nothing
  3816 ;; This function is called by:
  3817 ;;		_I2C1_Open
  3818 ;;		_I2C1_SlaveWrColCallBack
  3819 ;; This function uses a non-reentrant model
  3820 ;;
  3821                           
  3822                           
  3823                           ;psect for function _I2C1_SlaveDefWrColInterruptHandler
  3824  02E8                     _I2C1_SlaveDefWrColInterruptHandler:	
  3825  02E8                     i1l249:	
  3826                           ;incstack = 0
  3827                           ; Regs used in _I2C1_SlaveDefWrColInterruptHandler: []
  3828                           
  3829  02E8  0008               	return
  3830  02E9                     __end_of_I2C1_SlaveDefWrColInterruptHandler:	
  3831                           
  3832                           	psect	text28
  3833  0222                     __ptext28:	
  3834 ;; *************** function _I2C1_SlaveWrCallBack *****************
  3835 ;; Defined at:
  3836 ;;		line 236 in file "mcc_generated_files/i2c1_slave.c"
  3837 ;; Parameters:    Size  Location     Type
  3838 ;;		None
  3839 ;; Auto vars:     Size  Location     Type
  3840 ;;		None
  3841 ;; Return value:  Size  Location     Type
  3842 ;;                  1    wreg      void 
  3843 ;; Registers used:
  3844 ;;		wreg, status,2, status,0, pclath, cstack
  3845 ;; Tracked objects:
  3846 ;;		On entry : 0/0
  3847 ;;		On exit  : 0/0
  3848 ;;		Unchanged: 0/0
  3849 ;; Data sizes:     COMMON   BANK0   BANK1   BANK2   BANK3   BANK4
  3850 ;;      Params:         0       0       0       0       0       0
  3851 ;;      Locals:         0       0       0       0       0       0
  3852 ;;      Temps:          0       0       0       0       0       0
  3853 ;;      Totals:         0       0       0       0       0       0
  3854 ;;Total ram usage:        0 bytes
  3855 ;; Hardware stack levels used:    1
  3856 ;; Hardware stack levels required when called:    2
  3857 ;; This function calls:
  3858 ;;		Absolute function
  3859 ;;		_I2C1_SlaveDefWrInterruptHandler
  3860 ;; This function is called by:
  3861 ;;		_I2C1_Isr
  3862 ;; This function uses a non-reentrant model
  3863 ;;
  3864                           
  3865                           
  3866                           ;psect for function _I2C1_SlaveWrCallBack
  3867  0222                     _I2C1_SlaveWrCallBack:	
  3868  0222                     i1l1587:	
  3869                           ;incstack = 0
  3870                           ; Regs used in _I2C1_SlaveWrCallBack: [wreg+status,2+status,0+pclath+cstack]
  3871                           
  3872                           
  3873                           ;mcc_generated_files/i2c1_slave.c: 238:     if (I2C1_SlaveWrInterruptHandler)
  3874  0222  0020               	movlb	0	; select bank0
  3875  0223  082C               	movf	_I2C1_SlaveWrInterruptHandler,w
  3876  0224  042D               	iorwf	_I2C1_SlaveWrInterruptHandler+1,w
  3877  0225  1903               	btfsc	3,2
  3878  0226  2A28               	goto	u35_21
  3879  0227  2A29               	goto	u35_20
  3880  0228                     u35_21:	
  3881  0228  2A2E               	goto	i1l226
  3882  0229                     u35_20:	
  3883  0229                     i1l1589:	
  3884                           
  3885                           ;mcc_generated_files/i2c1_slave.c: 239:     {;mcc_generated_files/i2c1_slave.c: 240:    
      +                               I2C1_SlaveWrInterruptHandler();
  3886  0229  082D               	movf	_I2C1_SlaveWrInterruptHandler+1,w
  3887  022A  008A               	movwf	10
  3888  022B  082C               	movf	_I2C1_SlaveWrInterruptHandler,w
  3889  022C  000A               	callw
  3890  022D  3182               	pagesel	$
  3891  022E                     i1l226:	
  3892  022E  0008               	return
  3893  022F                     __end_of_I2C1_SlaveWrCallBack:	
  3894                           
  3895                           	psect	text29
  3896  02B3                     __ptext29:	
  3897 ;; *************** function _I2C1_SlaveDefWrInterruptHandler *****************
  3898 ;; Defined at:
  3899 ;;		line 244 in file "mcc_generated_files/i2c1_slave.c"
  3900 ;; Parameters:    Size  Location     Type
  3901 ;;		None
  3902 ;; Auto vars:     Size  Location     Type
  3903 ;;		None
  3904 ;; Return value:  Size  Location     Type
  3905 ;;                  1    wreg      void 
  3906 ;; Registers used:
  3907 ;;		wreg, status,2, status,0, pclath, cstack
  3908 ;; Tracked objects:
  3909 ;;		On entry : 0/0
  3910 ;;		On exit  : 0/0
  3911 ;;		Unchanged: 0/0
  3912 ;; Data sizes:     COMMON   BANK0   BANK1   BANK2   BANK3   BANK4
  3913 ;;      Params:         0       0       0       0       0       0
  3914 ;;      Locals:         0       0       0       0       0       0
  3915 ;;      Temps:          0       0       0       0       0       0
  3916 ;;      Totals:         0       0       0       0       0       0
  3917 ;;Total ram usage:        0 bytes
  3918 ;; Hardware stack levels used:    1
  3919 ;; Hardware stack levels required when called:    1
  3920 ;; This function calls:
  3921 ;;		_I2C1_SlaveSendTxData
  3922 ;; This function is called by:
  3923 ;;		_I2C1_Open
  3924 ;;		_I2C1_SlaveWrCallBack
  3925 ;; This function uses a non-reentrant model
  3926 ;;
  3927                           
  3928                           
  3929                           ;psect for function _I2C1_SlaveDefWrInterruptHandler
  3930  02B3                     _I2C1_SlaveDefWrInterruptHandler:	
  3931  02B3                     i1l1525:	
  3932                           ;incstack = 0
  3933                           ; Regs used in _I2C1_SlaveDefWrInterruptHandler: [wreg+status,2+status,0+pclath+cstack]
  3934                           
  3935                           
  3936                           ;mcc_generated_files/i2c1_slave.c: 245:     I2C1_SlaveSendTxData(i2c1WrData);
  3937  02B3  0876               	movf	_i2c1WrData,w	;volatile
  3938  02B4  3182  22B8  3182   	fcall	_I2C1_SlaveSendTxData
  3939  02B7                     i1l229:	
  3940  02B7  0008               	return
  3941  02B8                     __end_of_I2C1_SlaveDefWrInterruptHandler:	
  3942                           
  3943                           	psect	text30
  3944  02B8                     __ptext30:	
  3945 ;; *************** function _I2C1_SlaveSendTxData *****************
  3946 ;; Defined at:
  3947 ;;		line 377 in file "mcc_generated_files/i2c1_slave.c"
  3948 ;; Parameters:    Size  Location     Type
  3949 ;;  data            1    wreg     unsigned char 
  3950 ;; Auto vars:     Size  Location     Type
  3951 ;;  data            1    0[COMMON] unsigned char 
  3952 ;; Return value:  Size  Location     Type
  3953 ;;                  1    wreg      void 
  3954 ;; Registers used:
  3955 ;;		wreg
  3956 ;; Tracked objects:
  3957 ;;		On entry : 0/0
  3958 ;;		On exit  : 0/0
  3959 ;;		Unchanged: 0/0
  3960 ;; Data sizes:     COMMON   BANK0   BANK1   BANK2   BANK3   BANK4
  3961 ;;      Params:         0       0       0       0       0       0
  3962 ;;      Locals:         1       0       0       0       0       0
  3963 ;;      Temps:          0       0       0       0       0       0
  3964 ;;      Totals:         1       0       0       0       0       0
  3965 ;;Total ram usage:        1 bytes
  3966 ;; Hardware stack levels used:    1
  3967 ;; This function calls:
  3968 ;;		Nothing
  3969 ;; This function is called by:
  3970 ;;		_I2C1_SlaveDefWrInterruptHandler
  3971 ;;		_I2C1_Write
  3972 ;; This function uses a non-reentrant model
  3973 ;;
  3974                           
  3975                           
  3976                           ;psect for function _I2C1_SlaveSendTxData
  3977  02B8                     _I2C1_SlaveSendTxData:	
  3978                           
  3979                           ;incstack = 0
  3980                           ; Regs used in _I2C1_SlaveSendTxData: [wreg]
  3981                           ;I2C1_SlaveSendTxData@data stored from wreg
  3982  02B8  00F9               	movwf	I2C1_SlaveSendTxData@data
  3983  02B9                     i1l1515:	
  3984                           
  3985                           ;mcc_generated_files/i2c1_slave.c: 377: static __attribute__((inline)) void I2C1_SlaveSe
      +                          ndTxData(uint8_t data);mcc_generated_files/i2c1_slave.c: 378: {;mcc_generated_files/i2c1
      +                          _slave.c: 379:     SSP1BUF = data;
  3986  02B9  0879               	movf	I2C1_SlaveSendTxData@data,w
  3987  02BA  0024               	movlb	4	; select bank4
  3988  02BB  0091               	movwf	17	;volatile
  3989  02BC                     i1l305:	
  3990  02BC  0008               	return
  3991  02BD                     __end_of_I2C1_SlaveSendTxData:	
  3992                           
  3993                           	psect	text31
  3994  02D6                     __ptext31:	
  3995 ;; *************** function _I2C1_SlaveRestart *****************
  3996 ;; Defined at:
  3997 ;;		line 362 in file "mcc_generated_files/i2c1_slave.c"
  3998 ;; Parameters:    Size  Location     Type
  3999 ;;		None
  4000 ;; Auto vars:     Size  Location     Type
  4001 ;;		None
  4002 ;; Return value:  Size  Location     Type
  4003 ;;                  1    wreg      void 
  4004 ;; Registers used:
  4005 ;;		None
  4006 ;; Tracked objects:
  4007 ;;		On entry : 0/0
  4008 ;;		On exit  : 0/0
  4009 ;;		Unchanged: 0/0
  4010 ;; Data sizes:     COMMON   BANK0   BANK1   BANK2   BANK3   BANK4
  4011 ;;      Params:         0       0       0       0       0       0
  4012 ;;      Locals:         0       0       0       0       0       0
  4013 ;;      Temps:          0       0       0       0       0       0
  4014 ;;      Totals:         0       0       0       0       0       0
  4015 ;;Total ram usage:        0 bytes
  4016 ;; Hardware stack levels used:    1
  4017 ;; This function calls:
  4018 ;;		Nothing
  4019 ;; This function is called by:
  4020 ;;		_I2C1_Isr
  4021 ;; This function uses a non-reentrant model
  4022 ;;
  4023                           
  4024                           
  4025                           ;psect for function _I2C1_SlaveRestart
  4026  02D6                     _I2C1_SlaveRestart:	
  4027  02D6                     i1l1595:	
  4028                           ;incstack = 0
  4029                           ; Regs used in _I2C1_SlaveRestart: []
  4030                           
  4031                           
  4032                           ;mcc_generated_files/i2c1_slave.c: 364:     SSP1CON2bits.RSEN = 1;
  4033  02D6  0024               	movlb	4	; select bank4
  4034  02D7  1496               	bsf	22,1	;volatile
  4035  02D8                     i1l296:	
  4036  02D8  0008               	return
  4037  02D9                     __end_of_I2C1_SlaveRestart:	
  4038                           
  4039                           	psect	text32
  4040  02D9                     __ptext32:	
  4041 ;; *************** function _I2C1_SlaveReleaseClock *****************
  4042 ;; Defined at:
  4043 ;;		line 347 in file "mcc_generated_files/i2c1_slave.c"
  4044 ;; Parameters:    Size  Location     Type
  4045 ;;		None
  4046 ;; Auto vars:     Size  Location     Type
  4047 ;;		None
  4048 ;; Return value:  Size  Location     Type
  4049 ;;                  1    wreg      void 
  4050 ;; Registers used:
  4051 ;;		None
  4052 ;; Tracked objects:
  4053 ;;		On entry : 0/0
  4054 ;;		On exit  : 0/0
  4055 ;;		Unchanged: 0/0
  4056 ;; Data sizes:     COMMON   BANK0   BANK1   BANK2   BANK3   BANK4
  4057 ;;      Params:         0       0       0       0       0       0
  4058 ;;      Locals:         0       0       0       0       0       0
  4059 ;;      Temps:          0       0       0       0       0       0
  4060 ;;      Totals:         0       0       0       0       0       0
  4061 ;;Total ram usage:        0 bytes
  4062 ;; Hardware stack levels used:    1
  4063 ;; This function calls:
  4064 ;;		Nothing
  4065 ;; This function is called by:
  4066 ;;		_I2C1_Isr
  4067 ;; This function uses a non-reentrant model
  4068 ;;
  4069                           
  4070                           
  4071                           ;psect for function _I2C1_SlaveReleaseClock
  4072  02D9                     _I2C1_SlaveReleaseClock:	
  4073  02D9                     i1l1609:	
  4074                           ;incstack = 0
  4075                           ; Regs used in _I2C1_SlaveReleaseClock: []
  4076                           
  4077                           
  4078                           ;mcc_generated_files/i2c1_slave.c: 349:     SSP1CON1bits.CKP = 1;
  4079  02D9  0024               	movlb	4	; select bank4
  4080  02DA  1615               	bsf	21,4	;volatile
  4081  02DB                     i1l287:	
  4082  02DB  0008               	return
  4083  02DC                     __end_of_I2C1_SlaveReleaseClock:	
  4084                           
  4085                           	psect	text33
  4086  022F                     __ptext33:	
  4087 ;; *************** function _I2C1_SlaveRdCallBack *****************
  4088 ;; Defined at:
  4089 ;;		line 219 in file "mcc_generated_files/i2c1_slave.c"
  4090 ;; Parameters:    Size  Location     Type
  4091 ;;		None
  4092 ;; Auto vars:     Size  Location     Type
  4093 ;;		None
  4094 ;; Return value:  Size  Location     Type
  4095 ;;                  1    wreg      void 
  4096 ;; Registers used:
  4097 ;;		wreg, fsr1l, fsr1h, status,2, status,0, pclath, cstack
  4098 ;; Tracked objects:
  4099 ;;		On entry : 0/0
  4100 ;;		On exit  : 0/0
  4101 ;;		Unchanged: 0/0
  4102 ;; Data sizes:     COMMON   BANK0   BANK1   BANK2   BANK3   BANK4
  4103 ;;      Params:         0       0       0       0       0       0
  4104 ;;      Locals:         0       0       0       0       0       0
  4105 ;;      Temps:          0       0       0       0       0       0
  4106 ;;      Totals:         0       0       0       0       0       0
  4107 ;;Total ram usage:        0 bytes
  4108 ;; Hardware stack levels used:    1
  4109 ;; Hardware stack levels required when called:    2
  4110 ;; This function calls:
  4111 ;;		Absolute function
  4112 ;;		_I2C1_ReadISR
  4113 ;;		_I2C1_SlaveDefRdInterruptHandler
  4114 ;; This function is called by:
  4115 ;;		_I2C1_Isr
  4116 ;; This function uses a non-reentrant model
  4117 ;;
  4118                           
  4119                           
  4120                           ;psect for function _I2C1_SlaveRdCallBack
  4121  022F                     _I2C1_SlaveRdCallBack:	
  4122  022F                     i1l1601:	
  4123                           ;incstack = 0
  4124                           ; Regs used in _I2C1_SlaveRdCallBack: [wreg+fsr1l+fsr1h+status,2+status,0+pclath+cstack]
  4125                           
  4126                           
  4127                           ;mcc_generated_files/i2c1_slave.c: 221:     if (I2C1_SlaveRdInterruptHandler)
  4128  022F  0020               	movlb	0	; select bank0
  4129  0230  082E               	movf	_I2C1_SlaveRdInterruptHandler,w
  4130  0231  042F               	iorwf	_I2C1_SlaveRdInterruptHandler+1,w
  4131  0232  1903               	btfsc	3,2
  4132  0233  2A35               	goto	u37_21
  4133  0234  2A36               	goto	u37_20
  4134  0235                     u37_21:	
  4135  0235  2A3B               	goto	i1l216
  4136  0236                     u37_20:	
  4137  0236                     i1l1603:	
  4138                           
  4139                           ;mcc_generated_files/i2c1_slave.c: 222:     {;mcc_generated_files/i2c1_slave.c: 223:    
      +                               I2C1_SlaveRdInterruptHandler();
  4140  0236  082F               	movf	_I2C1_SlaveRdInterruptHandler+1,w
  4141  0237  008A               	movwf	10
  4142  0238  082E               	movf	_I2C1_SlaveRdInterruptHandler,w
  4143  0239  000A               	callw
  4144  023A  3182               	pagesel	$
  4145  023B                     i1l216:	
  4146  023B  0008               	return
  4147  023C                     __end_of_I2C1_SlaveRdCallBack:	
  4148                           
  4149                           	psect	text34
  4150  023C                     __ptext34:	
  4151 ;; *************** function _I2C1_ReadISR *****************
  4152 ;; Defined at:
  4153 ;;		line 67 in file "main.c"
  4154 ;; Parameters:    Size  Location     Type
  4155 ;;		None
  4156 ;; Auto vars:     Size  Location     Type
  4157 ;;		None
  4158 ;; Return value:  Size  Location     Type
  4159 ;;                  1    wreg      void 
  4160 ;; Registers used:
  4161 ;;		wreg, fsr1l, fsr1h, status,2, status,0
  4162 ;; Tracked objects:
  4163 ;;		On entry : 0/0
  4164 ;;		On exit  : 0/0
  4165 ;;		Unchanged: 0/0
  4166 ;; Data sizes:     COMMON   BANK0   BANK1   BANK2   BANK3   BANK4
  4167 ;;      Params:         0       0       0       0       0       0
  4168 ;;      Locals:         0       0       0       0       0       0
  4169 ;;      Temps:          1       0       0       0       0       0
  4170 ;;      Totals:         1       0       0       0       0       0
  4171 ;;Total ram usage:        1 bytes
  4172 ;; Hardware stack levels used:    1
  4173 ;; This function calls:
  4174 ;;		Nothing
  4175 ;; This function is called by:
  4176 ;;		_main
  4177 ;;		_I2C1_SlaveRdCallBack
  4178 ;; This function uses a non-reentrant model
  4179 ;;
  4180                           
  4181                           
  4182                           ;psect for function _I2C1_ReadISR
  4183  023C                     _I2C1_ReadISR:	
  4184  023C                     i1l1529:	
  4185                           ;incstack = 0
  4186                           ; Regs used in _I2C1_ReadISR: [wreg+fsr1l+fsr1h+status,2+status,0]
  4187                           
  4188                           
  4189                           ;main.c: 68:     DisplayVal[I2C_ReadCnt] = i2c1RdData;
  4190  023C  0875               	movf	_i2c1RdData,w	;volatile
  4191  023D  00F9               	movwf	??_I2C1_ReadISR
  4192  023E  0872               	movf	_I2C_ReadCnt,w
  4193  023F  3E20               	addlw	(low (_DisplayVal| 0))& (0+255)
  4194  0240  0086               	movwf	6
  4195  0241  0187               	clrf	7
  4196  0242  0879               	movf	??_I2C1_ReadISR,w
  4197  0243  0081               	movwf	1
  4198  0244                     i1l1531:	
  4199                           
  4200                           ;main.c: 69:     I2C_ReadCnt++;
  4201  0244  3001               	movlw	1
  4202  0245  00F9               	movwf	??_I2C1_ReadISR
  4203  0246  0879               	movf	??_I2C1_ReadISR,w
  4204  0247  07F2               	addwf	_I2C_ReadCnt,f
  4205  0248                     i1l540:	
  4206  0248  0008               	return
  4207  0249                     __end_of_I2C1_ReadISR:	
  4208                           
  4209                           	psect	text35
  4210  0269                     __ptext35:	
  4211 ;; *************** function _I2C1_SlaveDefRdInterruptHandler *****************
  4212 ;; Defined at:
  4213 ;;		line 227 in file "mcc_generated_files/i2c1_slave.c"
  4214 ;; Parameters:    Size  Location     Type
  4215 ;;		None
  4216 ;; Auto vars:     Size  Location     Type
  4217 ;;		None
  4218 ;; Return value:  Size  Location     Type
  4219 ;;                  1    wreg      void 
  4220 ;; Registers used:
  4221 ;;		wreg, pclath, cstack
  4222 ;; Tracked objects:
  4223 ;;		On entry : 0/0
  4224 ;;		On exit  : 0/0
  4225 ;;		Unchanged: 0/0
  4226 ;; Data sizes:     COMMON   BANK0   BANK1   BANK2   BANK3   BANK4
  4227 ;;      Params:         0       0       0       0       0       0
  4228 ;;      Locals:         0       0       0       0       0       0
  4229 ;;      Temps:          1       0       0       0       0       0
  4230 ;;      Totals:         1       0       0       0       0       0
  4231 ;;Total ram usage:        1 bytes
  4232 ;; Hardware stack levels used:    1
  4233 ;; Hardware stack levels required when called:    1
  4234 ;; This function calls:
  4235 ;;		_I2C1_SlaveGetRxData
  4236 ;; This function is called by:
  4237 ;;		_I2C1_Open
  4238 ;;		_I2C1_SlaveRdCallBack
  4239 ;; This function uses a non-reentrant model
  4240 ;;
  4241                           
  4242                           
  4243                           ;psect for function _I2C1_SlaveDefRdInterruptHandler
  4244  0269                     _I2C1_SlaveDefRdInterruptHandler:	
  4245  0269                     i1l1523:	
  4246                           ;incstack = 0
  4247                           ; Regs used in _I2C1_SlaveDefRdInterruptHandler: [wreg+pclath+cstack]
  4248                           
  4249                           
  4250                           ;mcc_generated_files/i2c1_slave.c: 228:     i2c1RdData = I2C1_SlaveGetRxData();
  4251  0269  3182  22DC  3182   	fcall	_I2C1_SlaveGetRxData
  4252  026C  00F9               	movwf	??_I2C1_SlaveDefRdInterruptHandler
  4253  026D  0879               	movf	??_I2C1_SlaveDefRdInterruptHandler,w
  4254  026E  00F5               	movwf	_i2c1RdData	;volatile
  4255  026F                     i1l219:	
  4256  026F  0008               	return
  4257  0270                     __end_of_I2C1_SlaveDefRdInterruptHandler:	
  4258                           
  4259                           	psect	text36
  4260  02DC                     __ptext36:	
  4261 ;; *************** function _I2C1_SlaveGetRxData *****************
  4262 ;; Defined at:
  4263 ;;		line 382 in file "mcc_generated_files/i2c1_slave.c"
  4264 ;; Parameters:    Size  Location     Type
  4265 ;;		None
  4266 ;; Auto vars:     Size  Location     Type
  4267 ;;		None
  4268 ;; Return value:  Size  Location     Type
  4269 ;;                  1    wreg      unsigned char 
  4270 ;; Registers used:
  4271 ;;		wreg
  4272 ;; Tracked objects:
  4273 ;;		On entry : 0/0
  4274 ;;		On exit  : 0/0
  4275 ;;		Unchanged: 0/0
  4276 ;; Data sizes:     COMMON   BANK0   BANK1   BANK2   BANK3   BANK4
  4277 ;;      Params:         0       0       0       0       0       0
  4278 ;;      Locals:         0       0       0       0       0       0
  4279 ;;      Temps:          0       0       0       0       0       0
  4280 ;;      Totals:         0       0       0       0       0       0
  4281 ;;Total ram usage:        0 bytes
  4282 ;; Hardware stack levels used:    1
  4283 ;; This function calls:
  4284 ;;		Nothing
  4285 ;; This function is called by:
  4286 ;;		_I2C1_Isr
  4287 ;;		_I2C1_SlaveDefRdInterruptHandler
  4288 ;;		_I2C1_Read
  4289 ;; This function uses a non-reentrant model
  4290 ;;
  4291                           
  4292                           
  4293                           ;psect for function _I2C1_SlaveGetRxData
  4294  02DC                     _I2C1_SlaveGetRxData:	
  4295  02DC                     i1l1511:	
  4296                           ;incstack = 0
  4297                           ; Regs used in _I2C1_SlaveGetRxData: [wreg]
  4298                           
  4299                           
  4300                           ;mcc_generated_files/i2c1_slave.c: 384:     return SSP1BUF;
  4301  02DC  0024               	movlb	4	; select bank4
  4302  02DD  0811               	movf	17,w	;volatile
  4303  02DE                     i1l308:	
  4304  02DE  0008               	return
  4305  02DF                     __end_of_I2C1_SlaveGetRxData:	
  4306                           
  4307                           	psect	text37
  4308  02BD                     __ptext37:	
  4309 ;; *************** function _I2C1_SlaveIsWriteCollision *****************
  4310 ;; Defined at:
  4311 ;;		line 352 in file "mcc_generated_files/i2c1_slave.c"
  4312 ;; Parameters:    Size  Location     Type
  4313 ;;		None
  4314 ;; Auto vars:     Size  Location     Type
  4315 ;;		None
  4316 ;; Return value:  Size  Location     Type
  4317 ;;                  1    wreg      _Bool 
  4318 ;; Registers used:
  4319 ;;		wreg, status,2, status,0
  4320 ;; Tracked objects:
  4321 ;;		On entry : 0/0
  4322 ;;		On exit  : 0/0
  4323 ;;		Unchanged: 0/0
  4324 ;; Data sizes:     COMMON   BANK0   BANK1   BANK2   BANK3   BANK4
  4325 ;;      Params:         0       0       0       0       0       0
  4326 ;;      Locals:         0       0       0       0       0       0
  4327 ;;      Temps:          0       0       0       0       0       0
  4328 ;;      Totals:         0       0       0       0       0       0
  4329 ;;Total ram usage:        0 bytes
  4330 ;; Hardware stack levels used:    1
  4331 ;; This function calls:
  4332 ;;		Nothing
  4333 ;; This function is called by:
  4334 ;;		_I2C1_Isr
  4335 ;; This function uses a non-reentrant model
  4336 ;;
  4337                           
  4338                           
  4339                           ;psect for function _I2C1_SlaveIsWriteCollision
  4340  02BD                     _I2C1_SlaveIsWriteCollision:	
  4341  02BD                     i1l1583:	
  4342                           ;incstack = 0
  4343                           ; Regs used in _I2C1_SlaveIsWriteCollision: [wreg+status,2+status,0]
  4344                           
  4345                           
  4346                           ;mcc_generated_files/i2c1_slave.c: 354:     return SSP1CON1bits.WCOL;
  4347  02BD  0024               	movlb	4	; select bank4
  4348  02BE  0D15               	rlf	21,w	;volatile
  4349  02BF  0D15               	rlf	21,w	;volatile
  4350  02C0  3901               	andlw	1
  4351  02C1                     i1l290:	
  4352  02C1  0008               	return
  4353  02C2                     __end_of_I2C1_SlaveIsWriteCollision:	
  4354                           
  4355                           	psect	text38
  4356  02C2                     __ptext38:	
  4357 ;; *************** function _I2C1_SlaveIsRead *****************
  4358 ;; Defined at:
  4359 ;;		line 337 in file "mcc_generated_files/i2c1_slave.c"
  4360 ;; Parameters:    Size  Location     Type
  4361 ;;		None
  4362 ;; Auto vars:     Size  Location     Type
  4363 ;;		None
  4364 ;; Return value:  Size  Location     Type
  4365 ;;                  1    wreg      _Bool 
  4366 ;; Registers used:
  4367 ;;		wreg, status,2, status,0
  4368 ;; Tracked objects:
  4369 ;;		On entry : 0/0
  4370 ;;		On exit  : 0/0
  4371 ;;		Unchanged: 0/0
  4372 ;; Data sizes:     COMMON   BANK0   BANK1   BANK2   BANK3   BANK4
  4373 ;;      Params:         0       0       0       0       0       0
  4374 ;;      Locals:         0       0       0       0       0       0
  4375 ;;      Temps:          0       0       0       0       0       0
  4376 ;;      Totals:         0       0       0       0       0       0
  4377 ;;Total ram usage:        0 bytes
  4378 ;; Hardware stack levels used:    1
  4379 ;; This function calls:
  4380 ;;		Nothing
  4381 ;; This function is called by:
  4382 ;;		_I2C1_Isr
  4383 ;; This function uses a non-reentrant model
  4384 ;;
  4385                           
  4386                           
  4387                           ;psect for function _I2C1_SlaveIsRead
  4388  02C2                     _I2C1_SlaveIsRead:	
  4389  02C2                     i1l1579:	
  4390                           ;incstack = 0
  4391                           ; Regs used in _I2C1_SlaveIsRead: [wreg+status,2+status,0]
  4392                           
  4393                           
  4394                           ;mcc_generated_files/i2c1_slave.c: 339:     return (SSP1STATbits.R_nW);
  4395  02C2  0024               	movlb	4	; select bank4
  4396  02C3  0C14               	rrf	20,w	;volatile
  4397  02C4  0C89               	rrf	9,f
  4398  02C5  3901               	andlw	1
  4399  02C6                     i1l281:	
  4400  02C6  0008               	return
  4401  02C7                     __end_of_I2C1_SlaveIsRead:	
  4402                           
  4403                           	psect	text39
  4404  02C7                     __ptext39:	
  4405 ;; *************** function _I2C1_SlaveIsData *****************
  4406 ;; Defined at:
  4407 ;;		line 357 in file "mcc_generated_files/i2c1_slave.c"
  4408 ;; Parameters:    Size  Location     Type
  4409 ;;		None
  4410 ;; Auto vars:     Size  Location     Type
  4411 ;;		None
  4412 ;; Return value:  Size  Location     Type
  4413 ;;                  1    wreg      _Bool 
  4414 ;; Registers used:
  4415 ;;		wreg, status,2, status,0
  4416 ;; Tracked objects:
  4417 ;;		On entry : 0/0
  4418 ;;		On exit  : 0/0
  4419 ;;		Unchanged: 0/0
  4420 ;; Data sizes:     COMMON   BANK0   BANK1   BANK2   BANK3   BANK4
  4421 ;;      Params:         0       0       0       0       0       0
  4422 ;;      Locals:         0       0       0       0       0       0
  4423 ;;      Temps:          0       0       0       0       0       0
  4424 ;;      Totals:         0       0       0       0       0       0
  4425 ;;Total ram usage:        0 bytes
  4426 ;; Hardware stack levels used:    1
  4427 ;; This function calls:
  4428 ;;		Nothing
  4429 ;; This function is called by:
  4430 ;;		_I2C1_Isr
  4431 ;; This function uses a non-reentrant model
  4432 ;;
  4433                           
  4434                           
  4435                           ;psect for function _I2C1_SlaveIsData
  4436  02C7                     _I2C1_SlaveIsData:	
  4437  02C7                     i1l1597:	
  4438                           ;incstack = 0
  4439                           ; Regs used in _I2C1_SlaveIsData: [wreg+status,2+status,0]
  4440                           
  4441                           
  4442                           ;mcc_generated_files/i2c1_slave.c: 359:     return SSP1STATbits.D_nA;
  4443  02C7  0024               	movlb	4	; select bank4
  4444  02C8  0E14               	swapf	20,w	;volatile
  4445  02C9  0C89               	rrf	9,f
  4446  02CA  3901               	andlw	1
  4447  02CB                     i1l293:	
  4448  02CB  0008               	return
  4449  02CC                     __end_of_I2C1_SlaveIsData:	
  4450                           
  4451                           	psect	text40
  4452  02DF                     __ptext40:	
  4453 ;; *************** function _I2C1_SlaveClearIrq *****************
  4454 ;; Defined at:
  4455 ;;		line 342 in file "mcc_generated_files/i2c1_slave.c"
  4456 ;; Parameters:    Size  Location     Type
  4457 ;;		None
  4458 ;; Auto vars:     Size  Location     Type
  4459 ;;		None
  4460 ;; Return value:  Size  Location     Type
  4461 ;;                  1    wreg      void 
  4462 ;; Registers used:
  4463 ;;		None
  4464 ;; Tracked objects:
  4465 ;;		On entry : 0/0
  4466 ;;		On exit  : 0/0
  4467 ;;		Unchanged: 0/0
  4468 ;; Data sizes:     COMMON   BANK0   BANK1   BANK2   BANK3   BANK4
  4469 ;;      Params:         0       0       0       0       0       0
  4470 ;;      Locals:         0       0       0       0       0       0
  4471 ;;      Temps:          0       0       0       0       0       0
  4472 ;;      Totals:         0       0       0       0       0       0
  4473 ;;Total ram usage:        0 bytes
  4474 ;; Hardware stack levels used:    1
  4475 ;; This function calls:
  4476 ;;		Nothing
  4477 ;; This function is called by:
  4478 ;;		_I2C1_Isr
  4479 ;; This function uses a non-reentrant model
  4480 ;;
  4481                           
  4482                           
  4483                           ;psect for function _I2C1_SlaveClearIrq
  4484  02DF                     _I2C1_SlaveClearIrq:	
  4485  02DF                     i1l1577:	
  4486                           ;incstack = 0
  4487                           ; Regs used in _I2C1_SlaveClearIrq: []
  4488                           
  4489                           
  4490                           ;mcc_generated_files/i2c1_slave.c: 344:     PIR1bits.SSP1IF = 0;
  4491  02DF  0020               	movlb	0	; select bank0
  4492  02E0  1191               	bcf	17,3	;volatile
  4493  02E1                     i1l284:	
  4494  02E1  0008               	return
  4495  02E2                     __end_of_I2C1_SlaveClearIrq:	
  4496                           
  4497                           	psect	text41
  4498  0249                     __ptext41:	
  4499 ;; *************** function _I2C1_SlaveAddrCallBack *****************
  4500 ;; Defined at:
  4501 ;;		line 253 in file "mcc_generated_files/i2c1_slave.c"
  4502 ;; Parameters:    Size  Location     Type
  4503 ;;		None
  4504 ;; Auto vars:     Size  Location     Type
  4505 ;;		None
  4506 ;; Return value:  Size  Location     Type
  4507 ;;                  1    wreg      void 
  4508 ;; Registers used:
  4509 ;;		wreg, status,2, status,0, pclath, cstack
  4510 ;; Tracked objects:
  4511 ;;		On entry : 0/0
  4512 ;;		On exit  : 0/0
  4513 ;;		Unchanged: 0/0
  4514 ;; Data sizes:     COMMON   BANK0   BANK1   BANK2   BANK3   BANK4
  4515 ;;      Params:         0       0       0       0       0       0
  4516 ;;      Locals:         0       0       0       0       0       0
  4517 ;;      Temps:          0       0       0       0       0       0
  4518 ;;      Totals:         0       0       0       0       0       0
  4519 ;;Total ram usage:        0 bytes
  4520 ;; Hardware stack levels used:    1
  4521 ;; Hardware stack levels required when called:    2
  4522 ;; This function calls:
  4523 ;;		Absolute function
  4524 ;;		_I2C1_AddrISR
  4525 ;;		_I2C1_SlaveDefAddrInterruptHandler
  4526 ;; This function is called by:
  4527 ;;		_I2C1_Isr
  4528 ;; This function uses a non-reentrant model
  4529 ;;
  4530                           
  4531                           
  4532                           ;psect for function _I2C1_SlaveAddrCallBack
  4533  0249                     _I2C1_SlaveAddrCallBack:	
  4534  0249                     i1l1605:	
  4535                           ;incstack = 0
  4536                           ; Regs used in _I2C1_SlaveAddrCallBack: [wreg+status,2+status,0+pclath+cstack]
  4537                           
  4538                           
  4539                           ;mcc_generated_files/i2c1_slave.c: 255:     if (I2C1_SlaveAddrInterruptHandler) {
  4540  0249  0020               	movlb	0	; select bank0
  4541  024A  082A               	movf	_I2C1_SlaveAddrInterruptHandler,w
  4542  024B  042B               	iorwf	_I2C1_SlaveAddrInterruptHandler+1,w
  4543  024C  1903               	btfsc	3,2
  4544  024D  2A4F               	goto	u38_21
  4545  024E  2A50               	goto	u38_20
  4546  024F                     u38_21:	
  4547  024F  2A55               	goto	i1l236
  4548  0250                     u38_20:	
  4549  0250                     i1l1607:	
  4550                           
  4551                           ;mcc_generated_files/i2c1_slave.c: 256:         I2C1_SlaveAddrInterruptHandler();
  4552  0250  082B               	movf	_I2C1_SlaveAddrInterruptHandler+1,w
  4553  0251  008A               	movwf	10
  4554  0252  082A               	movf	_I2C1_SlaveAddrInterruptHandler,w
  4555  0253  000A               	callw
  4556  0254  3182               	pagesel	$
  4557  0255                     i1l236:	
  4558  0255  0008               	return
  4559  0256                     __end_of_I2C1_SlaveAddrCallBack:	
  4560                           
  4561                           	psect	text42
  4562  02E5                     __ptext42:	
  4563 ;; *************** function _I2C1_AddrISR *****************
  4564 ;; Defined at:
  4565 ;;		line 72 in file "main.c"
  4566 ;; Parameters:    Size  Location     Type
  4567 ;;		None
  4568 ;; Auto vars:     Size  Location     Type
  4569 ;;		None
  4570 ;; Return value:  Size  Location     Type
  4571 ;;                  1    wreg      void 
  4572 ;; Registers used:
  4573 ;;		status,2
  4574 ;; Tracked objects:
  4575 ;;		On entry : 0/0
  4576 ;;		On exit  : 0/0
  4577 ;;		Unchanged: 0/0
  4578 ;; Data sizes:     COMMON   BANK0   BANK1   BANK2   BANK3   BANK4
  4579 ;;      Params:         0       0       0       0       0       0
  4580 ;;      Locals:         0       0       0       0       0       0
  4581 ;;      Temps:          0       0       0       0       0       0
  4582 ;;      Totals:         0       0       0       0       0       0
  4583 ;;Total ram usage:        0 bytes
  4584 ;; Hardware stack levels used:    1
  4585 ;; This function calls:
  4586 ;;		Nothing
  4587 ;; This function is called by:
  4588 ;;		_main
  4589 ;;		_I2C1_SlaveAddrCallBack
  4590 ;; This function uses a non-reentrant model
  4591 ;;
  4592                           
  4593                           
  4594                           ;psect for function _I2C1_AddrISR
  4595  02E5                     _I2C1_AddrISR:	
  4596  02E5                     i1l1533:	
  4597                           ;incstack = 0
  4598                           ; Regs used in _I2C1_AddrISR: [status,2]
  4599                           
  4600                           
  4601                           ;main.c: 73:     I2C_ReadCnt = 0;
  4602  02E5  01F2               	clrf	_I2C_ReadCnt
  4603  02E6                     i1l543:	
  4604  02E6  0008               	return
  4605  02E7                     __end_of_I2C1_AddrISR:	
  4606                           
  4607                           	psect	text43
  4608  0270                     __ptext43:	
  4609 ;; *************** function _I2C1_SlaveDefAddrInterruptHandler *****************
  4610 ;; Defined at:
  4611 ;;		line 260 in file "mcc_generated_files/i2c1_slave.c"
  4612 ;; Parameters:    Size  Location     Type
  4613 ;;		None
  4614 ;; Auto vars:     Size  Location     Type
  4615 ;;		None
  4616 ;; Return value:  Size  Location     Type
  4617 ;;                  1    wreg      void 
  4618 ;; Registers used:
  4619 ;;		wreg, pclath, cstack
  4620 ;; Tracked objects:
  4621 ;;		On entry : 0/0
  4622 ;;		On exit  : 0/0
  4623 ;;		Unchanged: 0/0
  4624 ;; Data sizes:     COMMON   BANK0   BANK1   BANK2   BANK3   BANK4
  4625 ;;      Params:         0       0       0       0       0       0
  4626 ;;      Locals:         0       0       0       0       0       0
  4627 ;;      Temps:          1       0       0       0       0       0
  4628 ;;      Totals:         1       0       0       0       0       0
  4629 ;;Total ram usage:        1 bytes
  4630 ;; Hardware stack levels used:    1
  4631 ;; Hardware stack levels required when called:    1
  4632 ;; This function calls:
  4633 ;;		_I2C1_SlaveGetAddr
  4634 ;; This function is called by:
  4635 ;;		_I2C1_Open
  4636 ;;		_I2C1_SlaveAddrCallBack
  4637 ;; This function uses a non-reentrant model
  4638 ;;
  4639                           
  4640                           
  4641                           ;psect for function _I2C1_SlaveDefAddrInterruptHandler
  4642  0270                     _I2C1_SlaveDefAddrInterruptHandler:	
  4643  0270                     i1l1527:	
  4644                           ;incstack = 0
  4645                           ; Regs used in _I2C1_SlaveDefAddrInterruptHandler: [wreg+pclath+cstack]
  4646                           
  4647                           
  4648                           ;mcc_generated_files/i2c1_slave.c: 261:     i2c1SlaveAddr = I2C1_SlaveGetAddr();
  4649  0270  3182  22E2  3182   	fcall	_I2C1_SlaveGetAddr
  4650  0273  00F9               	movwf	??_I2C1_SlaveDefAddrInterruptHandler
  4651  0274  0879               	movf	??_I2C1_SlaveDefAddrInterruptHandler,w
  4652  0275  00F4               	movwf	_i2c1SlaveAddr	;volatile
  4653  0276                     i1l239:	
  4654  0276  0008               	return
  4655  0277                     __end_of_I2C1_SlaveDefAddrInterruptHandler:	
  4656                           
  4657                           	psect	text44
  4658  02E2                     __ptext44:	
  4659 ;; *************** function _I2C1_SlaveGetAddr *****************
  4660 ;; Defined at:
  4661 ;;		line 387 in file "mcc_generated_files/i2c1_slave.c"
  4662 ;; Parameters:    Size  Location     Type
  4663 ;;		None
  4664 ;; Auto vars:     Size  Location     Type
  4665 ;;		None
  4666 ;; Return value:  Size  Location     Type
  4667 ;;                  1    wreg      unsigned char 
  4668 ;; Registers used:
  4669 ;;		wreg
  4670 ;; Tracked objects:
  4671 ;;		On entry : 0/0
  4672 ;;		On exit  : 0/0
  4673 ;;		Unchanged: 0/0
  4674 ;; Data sizes:     COMMON   BANK0   BANK1   BANK2   BANK3   BANK4
  4675 ;;      Params:         0       0       0       0       0       0
  4676 ;;      Locals:         0       0       0       0       0       0
  4677 ;;      Temps:          0       0       0       0       0       0
  4678 ;;      Totals:         0       0       0       0       0       0
  4679 ;;Total ram usage:        0 bytes
  4680 ;; Hardware stack levels used:    1
  4681 ;; This function calls:
  4682 ;;		Nothing
  4683 ;; This function is called by:
  4684 ;;		_I2C1_SlaveDefAddrInterruptHandler
  4685 ;; This function uses a non-reentrant model
  4686 ;;
  4687                           
  4688                           
  4689                           ;psect for function _I2C1_SlaveGetAddr
  4690  02E2                     _I2C1_SlaveGetAddr:	
  4691  02E2                     i1l1517:	
  4692                           ;incstack = 0
  4693                           ; Regs used in _I2C1_SlaveGetAddr: [wreg]
  4694                           
  4695                           
  4696                           ;mcc_generated_files/i2c1_slave.c: 389:     return SSP1ADD;
  4697  02E2  0024               	movlb	4	; select bank4
  4698  02E3  0812               	movf	18,w	;volatile
  4699  02E4                     i1l311:	
  4700  02E4  0008               	return
  4701  02E5                     __end_of_I2C1_SlaveGetAddr:	
  4702  007E                     btemp	set	126	;btemp
  4703  007E                     int$flags	set	126
  4704  007E                     wtemp0	set	126


Data Sizes:
    Strings     0
    Constant    0
    Data        0
    BSS         30
    Persistent  36
    Stack       0

Auto Spaces:
    Space          Size  Autos    Used
    COMMON           14      3      12
    BANK0            80      2      27
    BANK1            80      0       0
    BANK2            80      0       0
    BANK3            80      0       0
    BANK4            48      0       0

Pointer List with Targets:

    I2C1_SlaveSetBusColIntHandler@handler	PTR FTN()void  size(2) Largest target is 1
		 -> I2C1_SlaveDefBusColInterruptHandler(), 

    I2C1_SlaveBusColInterruptHandler	PTR FTN()void  size(2) Largest target is 1
		 -> I2C1_SlaveDefBusColInterruptHandler(), Absolute function(), 

    I2C1_SlaveSetWrColIntHandler@handler	PTR FTN()void  size(2) Largest target is 1
		 -> I2C1_SlaveDefWrColInterruptHandler(), 

    I2C1_SlaveWrColInterruptHandler	PTR FTN()void  size(2) Largest target is 1
		 -> I2C1_SlaveDefWrColInterruptHandler(), Absolute function(), 

    I2C1_SlaveSetAddrIntHandler@handler	PTR FTN()void  size(2) Largest target is 1
		 -> I2C1_AddrISR(), I2C1_SlaveDefAddrInterruptHandler(), 

    I2C1_SlaveAddrInterruptHandler	PTR FTN()void  size(2) Largest target is 1
		 -> I2C1_AddrISR(), I2C1_SlaveDefAddrInterruptHandler(), Absolute function(), 

    I2C1_SlaveSetWriteIntHandler@handler	PTR FTN()void  size(2) Largest target is 1
		 -> I2C1_SlaveDefWrInterruptHandler(), 

    I2C1_SlaveWrInterruptHandler	PTR FTN()void  size(2) Largest target is 1
		 -> I2C1_SlaveDefWrInterruptHandler(), Absolute function(), 

    I2C1_SlaveSetReadIntHandler@handler	PTR FTN()void  size(2) Largest target is 1
		 -> I2C1_ReadISR(), I2C1_SlaveDefRdInterruptHandler(), 

    I2C1_SlaveRdInterruptHandler	PTR FTN()void  size(2) Largest target is 1
		 -> I2C1_ReadISR(), I2C1_SlaveDefRdInterruptHandler(), Absolute function(), 

    I2C1_SlaveSetIsrHandler@handler	PTR FTN()void  size(2) Largest target is 1
		 -> I2C1_Isr(), 

    MSSP1_InterruptHandler	PTR FTN()void  size(2) Largest target is 1
		 -> I2C1_Isr(), Absolute function(), 

    TMR1_SetInterruptHandler@InterruptHandler	PTR FTN()void  size(2) Largest target is 1
		 -> Timer_ISR(), TMR1_DefaultInterruptHandler(), 

    TMR1_InterruptHandler	PTR FTN()void  size(2) Largest target is 1
		 -> Timer_ISR(), Absolute function(), TMR1_DefaultInterruptHandler(), 


Critical Paths under _main in COMMON

    None.

Critical Paths under _INTERRUPT_InterruptManager in COMMON

    _INTERRUPT_InterruptManager->_I2C1_Isr
    _TMR1_ISR->_TMR1_WriteTimer
    _I2C1_SlaveDefWrInterruptHandler->_I2C1_SlaveSendTxData
    _I2C1_SlaveRdCallBack->_I2C1_ReadISR
    _I2C1_SlaveRdCallBack->_I2C1_SlaveDefRdInterruptHandler
    _I2C1_SlaveAddrCallBack->_I2C1_SlaveDefAddrInterruptHandler

Critical Paths under _main in BANK0

    _main->_I2C1_SlaveSetAddrIntHandler
    _main->_I2C1_SlaveSetReadIntHandler
    _main->_TMR1_SetInterruptHandler
    _TMR1_Initialize->_TMR1_SetInterruptHandler
    _I2C1_Open->_I2C1_SlaveSetAddrIntHandler
    _I2C1_Open->_I2C1_SlaveSetBusColIntHandler
    _I2C1_Open->_I2C1_SlaveSetIsrHandler
    _I2C1_Open->_I2C1_SlaveSetReadIntHandler
    _I2C1_Open->_I2C1_SlaveSetWrColIntHandler
    _I2C1_Open->_I2C1_SlaveSetWriteIntHandler

Critical Paths under _INTERRUPT_InterruptManager in BANK0

    None.

Critical Paths under _main in BANK1

    None.

Critical Paths under _INTERRUPT_InterruptManager in BANK1

    None.

Critical Paths under _main in BANK2

    None.

Critical Paths under _INTERRUPT_InterruptManager in BANK2

    None.

Critical Paths under _main in BANK3

    None.

Critical Paths under _INTERRUPT_InterruptManager in BANK3

    None.

Critical Paths under _main in BANK4

    None.

Critical Paths under _INTERRUPT_InterruptManager in BANK4

    None.

Call Graph Tables:

 ---------------------------------------------------------------------------------
 (Depth) Function   	        Calls       Base Space   Used Autos Params    Refs
 ---------------------------------------------------------------------------------
 (0) _main                                                 0     0      0    1794
                          _I2C1_Open
        _I2C1_SlaveSetAddrIntHandler
        _I2C1_SlaveSetReadIntHandler
                  _SYSTEM_Initialize
           _TMR1_SetInterruptHandler
                    _TMR1_StartTimer
 ---------------------------------------------------------------------------------
 (1) _TMR1_StartTimer                                      0     0      0       0
 ---------------------------------------------------------------------------------
 (1) _SYSTEM_Initialize                                    0     0      0     211
                    _I2C1_Initialize
              _OSCILLATOR_Initialize
             _PIN_MANAGER_Initialize
                    _TMR1_Initialize
                     _WDT_Initialize
 ---------------------------------------------------------------------------------
 (2) _WDT_Initialize                                       0     0      0       0
 ---------------------------------------------------------------------------------
 (2) _TMR1_Initialize                                      0     0      0     211
           _TMR1_SetInterruptHandler
 ---------------------------------------------------------------------------------
 (1) _TMR1_SetInterruptHandler                             2     0      2     211
                                              0 BANK0      2     0      2
 ---------------------------------------------------------------------------------
 (2) _PIN_MANAGER_Initialize                               0     0      0       0
 ---------------------------------------------------------------------------------
 (2) _OSCILLATOR_Initialize                                0     0      0       0
 ---------------------------------------------------------------------------------
 (2) _I2C1_Initialize                                      1     1      0       0
                                              0 BANK0      1     1      0
 ---------------------------------------------------------------------------------
 (1) _I2C1_Open                                            0     0      0     950
                _I2C1_SlaveEnableIrq
                     _I2C1_SlaveOpen
        _I2C1_SlaveSetAddrIntHandler
      _I2C1_SlaveSetBusColIntHandler
            _I2C1_SlaveSetIsrHandler
        _I2C1_SlaveSetReadIntHandler
             _I2C1_SlaveSetSlaveAddr
             _I2C1_SlaveSetSlaveMask
       _I2C1_SlaveSetWrColIntHandler
       _I2C1_SlaveSetWriteIntHandler
 ---------------------------------------------------------------------------------
 (2) _I2C1_SlaveSetWriteIntHandler                         2     0      2     121
                                              0 BANK0      2     0      2
 ---------------------------------------------------------------------------------
 (2) _I2C1_SlaveSetWrColIntHandler                         2     0      2     121
                                              0 BANK0      2     0      2
 ---------------------------------------------------------------------------------
 (2) _I2C1_SlaveSetSlaveMask                               1     1      0      22
                                              0 BANK0      1     1      0
 ---------------------------------------------------------------------------------
 (2) _I2C1_SlaveSetSlaveAddr                               1     1      0      22
                                              0 BANK0      1     1      0
 ---------------------------------------------------------------------------------
 (1) _I2C1_SlaveSetReadIntHandler                          2     0      2     211
                                              0 BANK0      2     0      2
 ---------------------------------------------------------------------------------
 (2) _I2C1_SlaveSetIsrHandler                              2     0      2     121
                                              0 BANK0      2     0      2
 ---------------------------------------------------------------------------------
 (2) _I2C1_SlaveSetBusColIntHandler                        2     0      2     121
                                              0 BANK0      2     0      2
 ---------------------------------------------------------------------------------
 (1) _I2C1_SlaveSetAddrIntHandler                          2     0      2     211
                                              0 BANK0      2     0      2
 ---------------------------------------------------------------------------------
 (2) _I2C1_SlaveOpen                                       1     1      0       0
                                              0 BANK0      1     1      0
 ---------------------------------------------------------------------------------
 (2) _I2C1_SlaveEnableIrq                                  0     0      0       0
 ---------------------------------------------------------------------------------
 Estimated maximum stack depth 2
 ---------------------------------------------------------------------------------
 (Depth) Function   	        Calls       Base Space   Used Autos Params    Refs
 ---------------------------------------------------------------------------------
 (4) _INTERRUPT_InterruptManager                           0     0      0     262
                   Absolute function *
                           _I2C1_Isr *
                           _TMR1_ISR
 ---------------------------------------------------------------------------------
 (5) _TMR1_ISR                                             0     0      0     240
                   Absolute function *
       _TMR1_DefaultInterruptHandler *
                    _TMR1_WriteTimer
                          _Timer_ISR *
 ---------------------------------------------------------------------------------
 (6) _Timer_ISR                                            1     1      0       0
                                              0 COMMON     1     1      0
 ---------------------------------------------------------------------------------
 (6) _TMR1_WriteTimer                                      2     0      2     240
                                              0 COMMON     2     0      2
 ---------------------------------------------------------------------------------
 (6) _TMR1_DefaultInterruptHandler                         0     0      0       0
 ---------------------------------------------------------------------------------
 (5) _I2C1_Isr                                             2     2      0      22
                                              1 COMMON     2     2      0
             _I2C1_SlaveAddrCallBack
                 _I2C1_SlaveClearIrq
                _I2C1_SlaveGetRxData
                   _I2C1_SlaveIsData
                   _I2C1_SlaveIsRead
         _I2C1_SlaveIsWriteCollision
               _I2C1_SlaveRdCallBack
             _I2C1_SlaveReleaseClock
                  _I2C1_SlaveRestart
               _I2C1_SlaveWrCallBack
            _I2C1_SlaveWrColCallBack
 ---------------------------------------------------------------------------------
 (6) _I2C1_SlaveWrColCallBack                              0     0      0       0
                   Absolute function *
 _I2C1_SlaveDefWrColInterruptHandler *
 ---------------------------------------------------------------------------------
 (7) _I2C1_SlaveDefWrColInterruptHandler                   0     0      0       0
 ---------------------------------------------------------------------------------
 (6) _I2C1_SlaveWrCallBack                                 0     0      0      22
                   Absolute function *
    _I2C1_SlaveDefWrInterruptHandler *
 ---------------------------------------------------------------------------------
 (7) _I2C1_SlaveDefWrInterruptHandler                      0     0      0      22
               _I2C1_SlaveSendTxData
 ---------------------------------------------------------------------------------
 (8) _I2C1_SlaveSendTxData                                 1     1      0      22
                                              0 COMMON     1     1      0
 ---------------------------------------------------------------------------------
 (6) _I2C1_SlaveRestart                                    0     0      0       0
 ---------------------------------------------------------------------------------
 (6) _I2C1_SlaveReleaseClock                               0     0      0       0
 ---------------------------------------------------------------------------------
 (6) _I2C1_SlaveRdCallBack                                 0     0      0       0
                   Absolute function *
                       _I2C1_ReadISR *
    _I2C1_SlaveDefRdInterruptHandler *
 ---------------------------------------------------------------------------------
 (7) _I2C1_SlaveDefRdInterruptHandler                      1     1      0       0
                                              0 COMMON     1     1      0
                _I2C1_SlaveGetRxData
 ---------------------------------------------------------------------------------
 (8) _I2C1_SlaveGetRxData                                  0     0      0       0
 ---------------------------------------------------------------------------------
 (7) _I2C1_ReadISR                                         1     1      0       0
                                              0 COMMON     1     1      0
 ---------------------------------------------------------------------------------
 (6) _I2C1_SlaveIsWriteCollision                           0     0      0       0
 ---------------------------------------------------------------------------------
 (6) _I2C1_SlaveIsRead                                     0     0      0       0
 ---------------------------------------------------------------------------------
 (6) _I2C1_SlaveIsData                                     0     0      0       0
 ---------------------------------------------------------------------------------
 (6) _I2C1_SlaveClearIrq                                   0     0      0       0
 ---------------------------------------------------------------------------------
 (6) _I2C1_SlaveAddrCallBack                               0     0      0       0
                   Absolute function *
                       _I2C1_AddrISR *
  _I2C1_SlaveDefAddrInterruptHandler *
 ---------------------------------------------------------------------------------
 (7) _I2C1_SlaveDefAddrInterruptHandler                    1     1      0       0
                                              0 COMMON     1     1      0
                  _I2C1_SlaveGetAddr
 ---------------------------------------------------------------------------------
 (8) _I2C1_SlaveGetAddr                                    0     0      0       0
 ---------------------------------------------------------------------------------
 (7) _I2C1_AddrISR                                         0     0      0       0
 ---------------------------------------------------------------------------------
 (6) Absolute function(Fake)                               0     0      0       0
 ---------------------------------------------------------------------------------
 Estimated maximum stack depth 8
 ---------------------------------------------------------------------------------

 Call Graph Graphs:

 _main (ROOT)
   _I2C1_Open
     _I2C1_SlaveEnableIrq
     _I2C1_SlaveOpen
     _I2C1_SlaveSetAddrIntHandler
     _I2C1_SlaveSetBusColIntHandler
     _I2C1_SlaveSetIsrHandler
     _I2C1_SlaveSetReadIntHandler
     _I2C1_SlaveSetSlaveAddr
     _I2C1_SlaveSetSlaveMask
     _I2C1_SlaveSetWrColIntHandler
     _I2C1_SlaveSetWriteIntHandler
   _I2C1_SlaveSetAddrIntHandler
   _I2C1_SlaveSetReadIntHandler
   _SYSTEM_Initialize
     _I2C1_Initialize
     _OSCILLATOR_Initialize
     _PIN_MANAGER_Initialize
     _TMR1_Initialize
       _TMR1_SetInterruptHandler
     _WDT_Initialize
   _TMR1_SetInterruptHandler
   _TMR1_StartTimer

 _INTERRUPT_InterruptManager (ROOT)
   Absolute function(Fake) *
   _I2C1_Isr *
     _I2C1_SlaveAddrCallBack
       Absolute function(Fake) *
       _I2C1_AddrISR *
       _I2C1_SlaveDefAddrInterruptHandler *
         _I2C1_SlaveGetAddr
     _I2C1_SlaveClearIrq
     _I2C1_SlaveGetRxData
     _I2C1_SlaveIsData
     _I2C1_SlaveIsRead
     _I2C1_SlaveIsWriteCollision
     _I2C1_SlaveRdCallBack
       Absolute function(Fake) *
       _I2C1_ReadISR *
       _I2C1_SlaveDefRdInterruptHandler *
         _I2C1_SlaveGetRxData
     _I2C1_SlaveReleaseClock
     _I2C1_SlaveRestart
     _I2C1_SlaveWrCallBack
       Absolute function(Fake) *
       _I2C1_SlaveDefWrInterruptHandler *
         _I2C1_SlaveSendTxData
     _I2C1_SlaveWrColCallBack
       Absolute function(Fake) *
       _I2C1_SlaveDefWrColInterruptHandler *
   _TMR1_ISR *
     Absolute function(Fake) *
     _TMR1_DefaultInterruptHandler *
     _TMR1_WriteTimer *
     _Timer_ISR *

 Address spaces:
Name               Size   Autos  Total    Cost      Usage
BIGRAM             170      0       0       0        0.0%
EEDATA             100      0       0       0        0.0%
NULL                 0      0       0       0        0.0%
CODE                 0      0       0       0        0.0%
BITCOMMON            E      0       0       1        0.0%
BITSFR0              0      0       0       1        0.0%
SFR0                 0      0       0       1        0.0%
COMMON               E      3       C       2       85.7%
BITSFR1              0      0       0       2        0.0%
SFR1                 0      0       0       2        0.0%
BITSFR2              0      0       0       3        0.0%
SFR2                 0      0       0       3        0.0%
STACK                0      0       0       3        0.0%
BITSFR3              0      0       0       4        0.0%
SFR3                 0      0       0       4        0.0%
ABS                  0      0      27       4        0.0%
BITBANK0            50      0       0       5        0.0%
BITSFR4              0      0       0       5        0.0%
SFR4                 0      0       0       5        0.0%
BANK0               50      2      1B       6       33.8%
BITSFR5              0      0       0       6        0.0%
SFR5                 0      0       0       6        0.0%
BITBANK1            50      0       0       7        0.0%
BITSFR6              0      0       0       7        0.0%
SFR6                 0      0       0       7        0.0%
BANK1               50      0       0       8        0.0%
BITSFR7              0      0       0       8        0.0%
SFR7                 0      0       0       8        0.0%
BITBANK2            50      0       0       9        0.0%
BITSFR8              0      0       0       9        0.0%
SFR8                 0      0       0       9        0.0%
BANK2               50      0       0      10        0.0%
BITSFR9              0      0       0      10        0.0%
SFR9                 0      0       0      10        0.0%
BITBANK3            50      0       0      11        0.0%
BITSFR10             0      0       0      11        0.0%
SFR10                0      0       0      11        0.0%
BANK3               50      0       0      12        0.0%
BITSFR11             0      0       0      12        0.0%
SFR11                0      0       0      12        0.0%
BITBANK4            30      0       0      13        0.0%
BITSFR12             0      0       0      13        0.0%
SFR12                0      0       0      13        0.0%
BANK4               30      0       0      14        0.0%
BITSFR13             0      0       0      14        0.0%
SFR13                0      0       0      14        0.0%
BITSFR14             0      0       0      15        0.0%
SFR14                0      0       0      15        0.0%
DATA                 0      0      27      15        0.0%
BITSFR15             0      0       0      16        0.0%
SFR15                0      0       0      16        0.0%
BITSFR16             0      0       0      17        0.0%
SFR16                0      0       0      17        0.0%
BITSFR17             0      0       0      18        0.0%
SFR17                0      0       0      18        0.0%
BITSFR18             0      0       0      19        0.0%
SFR18                0      0       0      19        0.0%
BITSFR19             0      0       0      20        0.0%
SFR19                0      0       0      20        0.0%
BITSFR20             0      0       0      21        0.0%
SFR20                0      0       0      21        0.0%
BITSFR21             0      0       0      22        0.0%
SFR21                0      0       0      22        0.0%
BITSFR22             0      0       0      23        0.0%
SFR22                0      0       0      23        0.0%
BITSFR23             0      0       0      24        0.0%
SFR23                0      0       0      24        0.0%
BITSFR24             0      0       0      25        0.0%
SFR24                0      0       0      25        0.0%
BITSFR25             0      0       0      26        0.0%
SFR25                0      0       0      26        0.0%
BITSFR26             0      0       0      27        0.0%
SFR26                0      0       0      27        0.0%
BITSFR27             0      0       0      28        0.0%
SFR27                0      0       0      28        0.0%
BITSFR28             0      0       0      29        0.0%
SFR28                0      0       0      29        0.0%
BITSFR29             0      0       0      30        0.0%
SFR29                0      0       0      30        0.0%
BITSFR30             0      0       0      31        0.0%
SFR30                0      0       0      31        0.0%
BITSFR31             0      0       0      32        0.0%
SFR31                0      0       0      32        0.0%


Microchip Technology PIC Macro Assembler V2.10 build 88905656 
Symbol Table                                                                                   Thu Feb 27 00:23:50 2020

                   ??_I2C1_SlaveAddrCallBack 007A                                  __CFG_CP$OFF 0000  
                                         l30 02D2                                           l27 01B8  
                                         l57 0282                                  __CFG_LVP$ON 0000  
                                        l212 02A0                                          l222 0288  
                                        l232 02B2                                          l209 02A6  
                                        l242 028E                                          l171 0261  
                                        l252 02AC                                          l174 0179  
                                        l263 0214                                          l272 0294  
                                        l418 01E3                                          l275 02D5  
                                        l269 029A                                          l390 0268  
                                        l393 02CF                                          l387 0204  
                                        l548 019D                                          l549 019D  
                               __CFG_CPD$OFF 0000                                          u660 020A  
                                        u661 0209                     __end_of_I2C1_SlaveIsData 02CC  
                   __end_of_I2C1_SlaveIsRead 02C7                              _timer1ReloadVal 0037  
                               __CFG_BORV$LO 0000                                          wreg 0009  
                               __CFG_IESO$ON 0000                                         l1801 0297  
                           __end_of_I2C1_Isr 013B                                         l1811 029B  
                                       l1803 0291                                         l1813 02AD  
                                       l1805 02A1                                         l1821 01D2  
                                       l1807 02A7                                         l1815 0289  
                                       l1831 01DD                                         l1823 01D5  
                                       l1817 02D3                                         l1809 0283  
                                       l1841 0265                                         l1833 01DE  
                                       l1825 01D7                                         l1851 0176  
                                       l1843 0266                                         l1835 01E0  
                                       l1827 01DA                                         l1819 01CF  
                                       l1763 027D                                         l1771 01A6  
                                       l1781 0256                                         l1837 01E2  
                                       l1829 01DB                                         l1773 01A7  
                                       l1765 01A0                                         l1845 02CC  
                                       l1853 01F5                                         l1861 0186  
                                       l1791 020A                                         l1783 0259  
                                       l1839 0262                                         l1775 01AB  
                                       l1767 01A2                                         l1847 02D0  
                                       l1863 0187                                         l1793 020C  
                                       l1849 013B                                         l1785 025F  
                                       l1777 01AD                                         l1769 01A4  
                                       l1865 018A                                         l1857 017A  
                                       l1795 0212                                         l1787 0260  
                                       l1779 01B5                                         l1867 018D  
                                       l1859 0185                                         l1797 0213  
                                       l1789 0205                                         l1869 0195  
                                       _LATA 010C                                         _LATB 010D  
                                       i1l41 01F4                                         i1l60 02E7  
                                       i1l54 01CE                                         _WPUA 020C  
                                       _WPUB 020D                                 __CFG_WRT$OFF 0000  
                              __CFG_FCMEN$ON 0000                                         _main 017A  
         I2C1_SlaveSetAddrIntHandler@handler 0039                                         fsr0h 0005  
                                       fsr1h 0007                                         indf0 0000  
                                       fsr0l 0004                                         indf1 0001  
                                       fsr1l 0006                                         btemp 007E  
                              __CFG_BOREN$ON 0000                                         start 0035  
                                 _i2c1RdData 0075                   ??_TMR1_SetInterruptHandler 003B  
                              __CFG_MCLRE$ON 0000                                   _i2c1WrData 0076  
         I2C1_SlaveSetReadIntHandler@handler 0039                 _I2C1_SlaveRdInterruptHandler 002E  
               _I2C1_SlaveWrInterruptHandler 002C                             ??_I2C1_SlaveOpen 0039  
             __size_of_OSCILLATOR_Initialize 0007                 __size_of_I2C1_SlaveEnableIrq 0003  
              __end_of_OSCILLATOR_Initialize 0269                 __size_of_I2C1_SlaveGetRxData 0003  
                          __end_of_I2C1_Open 017A                                        ?_main 0079  
                  ??_I2C1_SlaveWrColCallBack 0079                                __CFG_WDTE$OFF 0000  
                            _TMR1_StartTimer 02D0                                        _T1CON 0018  
                                      i1l206 013A                                        i1l311 02E4  
                                      i1l216 023B                                        i1l305 02BC  
                                      i1l226 022E                                        i1l219 026F  
                                      i1l236 0255                                        i1l308 02DE  
                                      i1l500 008F                                        i1l229 02B7  
                                      i1l246 0221                                        i1l502 0090  
                                      i1l239 0276                                        i1l512 00AE  
                                      i1l504 0091                                        i1l281 02C6  
                                      i1l249 02E8                                        i1l521 00BD  
                                      i1l290 02C1                                        i1l530 00D1  
                                      i1l506 0092                                        i1l354 0033  
                                      i1l515 00B1                                        i1l347 001A  
                                      i1l284 02E1                                        i1l540 0248  
                                      i1l524 00C6                                        i1l348 0033  
                                      i1l293 02CB                                        i1l533 00D3  
                                      i1l349 0025                                        i1l518 00BB  
                                      i1l543 02E6                                        i1l287 02DB  
                                      i1l527 00C8                                        i1l296 02D8  
                                      i1l480 0067                                        i1l472 0056  
                                      i1l537 00E3                                        i1l492 0082  
                                      i1l484 0070                                        i1l476 005E  
                                      i1l496 008C                                        i1l488 0079  
                                      i1l498 008E                                        u40_20 0056  
                                      u40_21 0055                                        u41_20 005E  
                                      u41_21 005D                                        _TMR1H 0017  
                                      _TMR1L 0016                                        u34_20 01E9  
                                      u50_20 00BB                                        u42_20 0067  
                                      u34_21 01E8                                        u50_21 00BA  
                                      u42_21 0066                                        u35_20 0229  
                                      u51_20 00C6                                        u43_20 0070  
                                      u35_21 0228                                        u51_21 00C5  
                                      u43_21 006F                                        u36_20 021C  
                                      u52_20 00D1                                        u44_20 0079  
                                      u60_20 000F                                        u36_21 021B  
                                      u52_21 00D0                                        u44_21 0078  
                                      u60_21 000E                                        u37_20 0236  
                                      u53_20 00E1                                        u45_20 0082  
                                      u61_20 0014                                        u37_21 0235  
                                      u53_21 00E0                                        u45_21 0081  
                                      u61_21 0013                                        u38_20 0250  
                                      u46_20 008C                                        u54_20 01C9  
                                      u62_20 001F                                        u38_21 024F  
                                      u46_21 008B                                        u54_21 01C8  
                                      u62_21 001E                                        u55_20 00F5  
                                      u47_20 009B                                        u39_20 0051  
                                      u63_20 0024                                        u55_21 00F4  
                                      u47_21 009A                                        u39_21 0050  
                                      u63_21 0023                                        u56_20 0107  
                                      u48_20 00A5                                        u64_20 002A  
                                      u56_21 0106                                        u48_21 00A4  
                                      u64_21 0029                                        u57_20 011B  
                                      u49_20 00AE                                        u65_20 002F  
                                      u57_21 011A                                        u49_21 00AD  
                                      u65_21 002E                                        _TRISA 008C  
                                      _TRISB 008D                                        u59_20 000A  
                                      u59_21 0009                            ??_I2C1_Initialize 0039  
                                 _DisplayCnt 0070               I2C1_SlaveSetSlaveMask@maskAddr 0039  
                                 _DisplayVal 0020                             __end_of_TMR1_ISR 01CF  
                                 _DisplayNum 0073                               _WDT_Initialize 02CC  
                    __end_of_TMR1_Initialize 01B9                                        pclath 000A  
                                      status 0003                                        wtemp0 007E  
                            _TMR1_WriteTimer 01E4                              __initialization 0037  
                               __end_of_main 01A0           __end_of_I2C1_SlaveIsWriteCollision 02C2  
                 _I2C1_SlaveIsWriteCollision 02BD              __size_of_I2C1_SlaveAddrCallBack 000D  
                ?_INTERRUPT_InterruptManager 0079                                       ??_main 003B  
                         _I2C1_SlaveClearIrq 02DF                               __CFG_PLLEN$OFF 0000  
                     __end_of_WDT_Initialize 02D0                __size_of_I2C1_SlaveRdCallBack 000D  
                        ?_I2C1_SlaveClearIrq 0079                      ?_I2C1_SlaveReleaseClock 0079  
                                     _ANSELA 018C                                       _ANSELB 018D  
                                     _BORCON 0116                                       _T1GCON 0019  
                    TMR1_WriteTimer@timerVal 0079                                       i1l1511 02DC  
                                     i1l1601 022F                                       i1l1523 0269  
                                     i1l1531 0244                                       i1l1603 0236  
                                     i1l1515 02B9                                       i1l1611 004B  
                                     i1l1517 02E2                                       i1l1533 02E5  
                                     i1l1605 0249                                       i1l1525 02B3  
                                     i1l1621 0073                                       i1l1613 0051  
                                     i1l1527 0270                                       i1l1607 0250  
                                     i1l1551 01E4                                       i1l1631 009F  
                                     i1l1623 007C                                       i1l1615 0059  
                                     i1l1529 023C                                       i1l1609 02D9  
                                     i1l1553 01E9                                       i1l1561 01F0  
                                     i1l1641 00C9                                       i1l1633 00A5  
                                     i1l1617 0061                                       i1l1625 0085  
                                     i1l1721 001F                                       i1l1713 0006  
                                     i1l1563 01F2                                       i1l1555 01EA  
                                     i1l1635 00A6                                       i1l1627 0094  
                                     i1l1619 006A                                       i1l1643 00D4  
                                     i1l1651 01C2                                       i1l1715 000A  
                                     i1l1661 00E7                                       i1l1557 01EC  
                                     i1l1645 00E1                                       i1l1637 00B3  
                                     i1l1629 009B                                       i1l1653 01C9  
                                     i1l1725 002A                                       i1l1717 000F  
                                     i1l1583 02BD                                       i1l1591 0215  
                                     i1l1671 0107                                       i1l1663 00ED  
                                     i1l1559 01EE                                       i1l1639 00BE  
                                     i1l1647 01B9                                       i1l1727 002F  
                                     i1l1719 0014                                       i1l1577 02DF  
                                     i1l1593 021C                                       i1l1681 011B  
                                     i1l1673 010B                                       i1l1665 00F5  
                                     i1l1649 01BB                                       i1l1579 02C2  
                                     i1l1595 02D6                                       i1l1587 0222  
                                     i1l1683 011F                                       i1l1691 0133  
                                     i1l1675 010E                                       i1l1667 00FA  
                                     i1l1659 00E4                                       i1l1597 02C7  
                                     i1l1589 0229                                       i1l1693 0137  
                                     i1l1677 0111                                       i1l1669 00FF  
                                     i1l1679 0113                                       i1l1689 0123  
                                     i1l1891 012B                                       _OSCCON 0099  
                                     _WDTCON 0097                               __CFG_PWRTE$OFF 0000  
       __end_of_TMR1_DefaultInterruptHandler 02E8        __size_of_TMR1_DefaultInterruptHandler 0001  
               _TMR1_DefaultInterruptHandler 02E7                         ??_I2C1_SlaveClearIrq 0079  
                    __end_of_TMR1_StartTimer 02D3                               __CFG_STVREN$ON 0000  
                                  ?_I2C1_Isr 0079                      ?_I2C1_SlaveSetSlaveAddr 0079  
                    ?_I2C1_SlaveSetSlaveMask 0079                           __size_of_Timer_ISR 0099  
       __end_of_I2C1_SlaveSetWrColIntHandler 028F        __size_of_I2C1_SlaveSetWrColIntHandler 0006  
               _I2C1_SlaveSetWrColIntHandler 0289         I2C1_SlaveSetBusColIntHandler@handler 0039  
                            ?_WDT_Initialize 0079               __end_of_I2C1_SlaveReleaseClock 02DC  
   TMR1_SetInterruptHandler@InterruptHandler 0039                       _I2C1_SlaveAddrCallBack 0249  
                    __end_of_TMR1_WriteTimer 01F5                             ?_TMR1_Initialize 0079  
                          _SYSTEM_Initialize 01F5                      __end_of__initialization 0047  
        I2C1_SlaveSetWrColIntHandler@handler 0039                           ?_SYSTEM_Initialize 0079  
              __size_of_I2C1_SlaveSendTxData 0005                               __pcstackCOMMON 0079  
              __size_of_I2C1_SlaveWrCallBack 000D                          ??_SYSTEM_Initialize 003B  
                                  ?_TMR1_ISR 0079                ?_TMR1_DefaultInterruptHandler 0079  
             __end_of_I2C1_SlaveSetSlaveAddr 029B               __end_of_I2C1_SlaveSetSlaveMask 0295  
                                 ??_I2C1_Isr 007A                            ?_I2C1_SlaveIsData 0079  
                             _OPTION_REGbits 0095                            ?_I2C1_SlaveIsRead 0079  
                         ??_I2C1_SlaveIsData 0079                           ??_I2C1_SlaveIsRead 0079  
                  __end_of_SYSTEM_Initialize 0205                                   __pbssBANK0 0020  
                        _I2C1_SlaveEnableIrq 02D3                          _I2C1_SlaveGetRxData 02DC  
                          __end_of_Timer_ISR 00E4                                   __pmaintext 017A  
              ?_I2C1_SlaveSetWriteIntHandler 0039                             ?_TMR1_StartTimer 0079  
                                 ??_TMR1_ISR 007B                                   __pintentry 0004  
                            _I2C1_Initialize 0256                         ?_I2C1_SlaveEnableIrq 0079  
                       ?_I2C1_SlaveGetRxData 0079                                      _APFCON0 011D  
                                    _APFCON1 011E                                    _I2C1_Open 013B  
                                    _OSCTUNE 0098                                      _SSP1ADD 0212  
                                    _SSP1BUF 0211                                      _SSP1MSK 0213  
                   ?_I2C1_SlaveSetIsrHandler 0039                             ?_TMR1_WriteTimer 0079  
             ?_I2C1_SlaveSetBusColIntHandler 0039                                    _I2C_RxBuf 0032  
       __size_of_I2C1_SlaveSetAddrIntHandler 0006                                 _DisplayPhase 0034  
                ?_I2C1_SlaveIsWriteCollision 0079                        ??_I2C1_SlaveEnableIrq 0039  
                      ??_I2C1_SlaveGetRxData 0079                                      __ptext1 02D0  
                                    __ptext2 01F5                                      __ptext3 02CC  
                                    __ptext4 01A0                                      __ptext5 027D  
                                    __ptext6 01CF                                      __ptext7 0262  
                                    __ptext8 0256                                      __ptext9 013B  
             ??_TMR1_DefaultInterruptHandler 0079               _I2C1_SlaveAddrInterruptHandler 002A  
                                  _T1CONbits 0018                        _OSCILLATOR_Initialize 0262  
          __size_of_TMR1_SetInterruptHandler 0006              I2C1_SlaveSetSlaveAddr@slaveAddr 0039  
                              ?_I2C1_AddrISR 0079                     ??_PIN_MANAGER_Initialize 0039  
                  ?_TMR1_SetInterruptHandler 0039                                   ?_I2C1_Open 0079  
       __size_of_I2C1_SlaveSetReadIntHandler 0006                   __size_of_SYSTEM_Initialize 0010  
                                    clrloop0 0278                         end_of_initialization 0047  
                              ?_I2C1_ReadISR 0079              _I2C1_SlaveWrColInterruptHandler 0026  
                    __end_of_I2C1_Initialize 0262                 __end_of_I2C1_SlaveRdCallBack 023C  
                   ?_I2C1_SlaveWrColCallBack 0079               ??_I2C1_SlaveSetWriteIntHandler 003B  
                           ??_WDT_Initialize 0039                            __size_of_I2C1_Isr 0057  
                             ??_I2C1_AddrISR 0079              __end_of_I2C1_SlaveSetIsrHandler 02A7  
                           __CFG_FOSC$INTOSC 0000                      ?_I2C1_SlaveAddrCallBack 0079  
                    __size_of_I2C1_SlaveOpen 0010                               ??_I2C1_ReadISR 0079  
             I2C1_SlaveSetIsrHandler@handler 0039                                    _i2c1State 0078  
                __size_of_I2C1_SlaveClearIrq 0003                                _i2c1NextState 0077  
                          __size_of_TMR1_ISR 0016                                  _I2C_ReadCnt 0072  
                              _i2c1SlaveAddr 0074                       ?_OSCILLATOR_Initialize 0079  
             __end_of_I2C1_SlaveAddrCallBack 0256                 __end_of_I2C1_SlaveSendTxData 02BD  
                        start_initialization 0037                                  ??_I2C1_Open 003B  
               __end_of_I2C1_SlaveWrCallBack 022F              __size_of_PIN_MANAGER_Initialize 0015  
                          _I2C1_SlaveGetAddr 02E2                           ?_I2C1_SlaveGetAddr 0079  
                   I2C1_SlaveSendTxData@data 0079                    __size_of_I2C1_SlaveIsData 0005  
                  __size_of_I2C1_SlaveIsRead 0005              __end_of_I2C1_SlaveWrColCallBack 0222  
                          _I2C1_SlaveRestart 02D6                             ?_I2C1_Initialize 0079  
                   __size_of_TMR1_Initialize 0019                          ??_I2C1_SlaveGetAddr 0079  
                         ?_I2C1_SlaveRestart 0079                                    _Timer_ISR 004B  
    __end_of_I2C1_SlaveDefRdInterruptHandler 0270     __size_of_I2C1_SlaveDefRdInterruptHandler 0007  
          ??_I2C1_SlaveDefRdInterruptHandler 0079             ?_I2C1_SlaveDefRdInterruptHandler 0079  
            _I2C1_SlaveDefRdInterruptHandler 0269      __end_of_I2C1_SlaveDefWrInterruptHandler 02B8  
   __size_of_I2C1_SlaveDefWrInterruptHandler 0005            ??_I2C1_SlaveDefWrInterruptHandler 007A  
           ?_I2C1_SlaveDefWrInterruptHandler 0079              _I2C1_SlaveDefWrInterruptHandler 02B3  
                        ??_I2C1_SlaveRestart 0079                                  __pbssCOMMON 0070  
                                  ___latbits 0001                                __pcstackBANK0 0039  
                       _I2C1_SlaveRdCallBack 022F                    __end_of_I2C1_SlaveGetAddr 02E5  
               ?_I2C1_SlaveSetAddrIntHandler 0039                    __end_of_I2C1_SlaveRestart 02D9  
                                  __pnvBANK0 0035                         __end_of_I2C1_AddrISR 02E7  
                     _PIN_MANAGER_Initialize 01CF                       _MSSP1_InterruptHandler 0030  
           __size_of_I2C1_SlaveSetIsrHandler 0006                                   ?_Timer_ISR 0079  
           __end_of_TMR1_SetInterruptHandler 0283                 ?_I2C1_SlaveSetReadIntHandler 0039  
                       __end_of_I2C1_ReadISR 0249              ??_I2C1_SlaveSetBusColIntHandler 003B  
                                   _I2C1_Isr 00E4                 ??_INTERRUPT_InterruptManager 007C  
                   ??_I2C1_SlaveReleaseClock 0079                     __size_of_TMR1_StartTimer 0003  
        __end_of_I2C1_SlaveSetAddrIntHandler 02B3                  _I2C1_SlaveSetAddrIntHandler 02AD  
                             _I2C1_SlaveOpen 0205                        ?_I2C1_SlaveRdCallBack 0079  
              ?_I2C1_SlaveSetWrColIntHandler 0039                ??_I2C1_SlaveSetAddrIntHandler 003B  
                                   _LATAbits 010C                                     _LATBbits 010D  
                                  clear_ram0 0277                                     _PIE1bits 0091  
                                   _PIE2bits 0092                     ??_I2C1_SlaveSetSlaveAddr 0039  
        __end_of_I2C1_SlaveSetReadIntHandler 02A1                  _I2C1_SlaveSetReadIntHandler 029B  
                   ??_I2C1_SlaveSetSlaveMask 0039                     __size_of_TMR1_WriteTimer 0011  
        __size_of_INTERRUPT_InterruptManager 0031                  __end_of_I2C1_SlaveEnableIrq 02D6  
                __end_of_I2C1_SlaveGetRxData 02DF                                     _PIR1bits 0011  
                                   _PIR2bits 0012                         _I2C1_SlaveSendTxData 02B8  
                       _I2C1_SlaveWrCallBack 0222                                     _SSP1CON1 0215  
                                   _SSP1CON2 0216                                     _TMR1_ISR 01B9  
                                   _SSP1STAT 0214                ??_I2C1_SlaveSetReadIntHandler 003B  
                          ??_TMR1_Initialize 003B                       __end_of_I2C1_SlaveOpen 0215  
                 __size_of_I2C1_SlaveGetAddr 0003             _I2C1_SlaveBusColInterruptHandler 0028  
           __size_of_I2C1_SlaveWrColCallBack 000D   __end_of_I2C1_SlaveDefWrColInterruptHandler 02E9  
__size_of_I2C1_SlaveDefWrColInterruptHandler 0001         ??_I2C1_SlaveDefWrColInterruptHandler 0079  
        ?_I2C1_SlaveDefWrColInterruptHandler 0079           _I2C1_SlaveDefWrColInterruptHandler 02E8  
                 __size_of_I2C1_SlaveRestart 0003    __end_of_I2C1_SlaveDefAddrInterruptHandler 0277  
 __size_of_I2C1_SlaveDefAddrInterruptHandler 0007          ??_I2C1_SlaveDefAddrInterruptHandler 0079  
         ?_I2C1_SlaveDefAddrInterruptHandler 0079            _I2C1_SlaveDefAddrInterruptHandler 0270  
                           _I2C1_SlaveIsData 02C7                             _I2C1_SlaveIsRead 02C2  
                      ?_I2C1_SlaveSendTxData 0079                        ?_I2C1_SlaveWrCallBack 0079  
                                ??_Timer_ISR 0079                                _DisplayErrNum 0033  
                    ??_OSCILLATOR_Initialize 0039                     _TMR1_SetInterruptHandler 027D  
            __size_of_I2C1_SlaveReleaseClock 0003          _I2C1_SlaveDefBusColInterruptHandler 0000  
                      _TMR1_InterruptHandler 0035                              ?_I2C1_SlaveOpen 0079  
                     ??_I2C1_SlaveRdCallBack 007A        __end_of_I2C1_SlaveSetBusColIntHandler 02AD  
     __size_of_I2C1_SlaveSetBusColIntHandler 0006                _I2C1_SlaveSetBusColIntHandler 02A7  
                                   __ptext10 0283                                     __ptext11 0289  
                                   __ptext12 028F                                     __ptext21 01B9  
                                   __ptext13 0295                                   _T1GCONbits 0019  
                                   __ptext30 02B8                                     __ptext22 02E7  
                                   __ptext14 029B                                     __ptext31 02D6  
                                   __ptext23 004B                                     __ptext15 02A1  
                                   __ptext40 02DF                                     __ptext32 02D9  
                                   __ptext24 01E4                                     __ptext16 02A7  
                                   __ptext41 0249                                     __ptext33 022F  
                                   __ptext25 00E4                                     __ptext17 02AD  
                                   __ptext42 02E5                                     __ptext34 023C  
                                   __ptext26 0215                                     __ptext18 0205  
                                   __ptext43 0270                                     __ptext35 0269  
                                   __ptext27 02E8                                     __ptext19 02D3  
                                   __ptext44 02E2                                     __ptext36 02DC  
                                   __ptext28 0222                                     __ptext37 02BD  
                                   __ptext29 02B3                                     __ptext38 02C2  
                                   __ptext39 02C7                                 _SSP1CON1bits 0215  
                               _SSP1CON2bits 0216                            ??_TMR1_StartTimer 0039  
       __end_of_I2C1_SlaveSetWriteIntHandler 0289        __size_of_I2C1_SlaveSetWriteIntHandler 0006  
               _I2C1_SlaveSetWriteIntHandler 0283                        __size_of_I2C1_AddrISR 0002  
                              __size_of_main 0026               ??_I2C1_SlaveSetWrColIntHandler 003B  
                 __end_of_I2C1_SlaveClearIrq 02E2              __size_of_I2C1_SlaveSetSlaveAddr 0006  
                    _I2C1_SlaveSetIsrHandler 02A1              __size_of_I2C1_SlaveSetSlaveMask 0006  
                      __size_of_I2C1_ReadISR 000D                                     int$flags 007E  
         __end_of_INTERRUPT_InterruptManager 0035                   _INTERRUPT_InterruptManager 0004  
                               _SSP1STATbits 0214                            ??_TMR1_WriteTimer 007B  
                                 _INTCONbits 000B                                 _I2C1_AddrISR 02E5  
                    __size_of_WDT_Initialize 0004                                     intlevel1 0000  
                               _I2C1_ReadISR 023C                       _I2C1_SlaveReleaseClock 02D9  
                    ?_PIN_MANAGER_Initialize 0079                            __CFG_CLKOUTEN$OFF 0000  
                     ??_I2C1_SlaveSendTxData 0079                       ??_I2C1_SlaveWrCallBack 007A  
        I2C1_SlaveSetWriteIntHandler@handler 0039                 ??_I2C1_SlaveIsWriteCollision 0079  
                   __size_of_I2C1_Initialize 000C                       _I2C1_SlaveSetSlaveAddr 0295  
                     _I2C1_SlaveSetSlaveMask 028F                      _I2C1_SlaveWrColCallBack 0215  
             __end_of_PIN_MANAGER_Initialize 01E4                           __size_of_I2C1_Open 003F  
                  ??_I2C1_SlaveSetIsrHandler 003B          __size_of_I2C1_SlaveIsWriteCollision 0005  
                            _TMR1_Initialize 01A0  
